
root/bin/lwIPKit.elf:     file format elf32-littlearm


Disassembly of section .text:

00100000 <_start>:
  100000:	e1a0d003 	mov	sp, r3
  100004:	ebffffff 	bl	100008 <_start_c>

00100008 <_start_c>:
  100008:	e3a0c000 	mov	ip, #0
  10000c:	e52de004 	push	{lr}		; (str lr, [sp, #-4]!)
  100010:	e59f3018 	ldr	r3, [pc, #24]	; 100030 <_start_c+0x28>
  100014:	e24dd00c 	sub	sp, sp, #12
  100018:	e5901000 	ldr	r1, [r0]
  10001c:	e2802004 	add	r2, r0, #4
  100020:	e88d1008 	stm	sp, {r3, ip}
  100024:	e59f0008 	ldr	r0, [pc, #8]	; 100034 <_start_c+0x2c>
  100028:	e59f3008 	ldr	r3, [pc, #8]	; 100038 <_start_c+0x30>
  10002c:	eb00e41a 	bl	13909c <__libc_start_main>
  100030:	00145594 	.word	0x00145594
  100034:	00103c5c 	.word	0x00103c5c
  100038:	00145588 	.word	0x00145588

0010003c <deregister_tm_clones>:
  10003c:	e59f0018 	ldr	r0, [pc, #24]	; 10005c <deregister_tm_clones+0x20>
  100040:	e59f3018 	ldr	r3, [pc, #24]	; 100060 <deregister_tm_clones+0x24>
  100044:	e1530000 	cmp	r3, r0
  100048:	012fff1e 	bxeq	lr
  10004c:	e59f3010 	ldr	r3, [pc, #16]	; 100064 <deregister_tm_clones+0x28>
  100050:	e3530000 	cmp	r3, #0
  100054:	012fff1e 	bxeq	lr
  100058:	e12fff13 	bx	r3
  10005c:	0014e3f0 	.word	0x0014e3f0
  100060:	0014e3f0 	.word	0x0014e3f0
  100064:	00000000 	.word	0x00000000

00100068 <register_tm_clones>:
  100068:	e59f0024 	ldr	r0, [pc, #36]	; 100094 <register_tm_clones+0x2c>
  10006c:	e59f1024 	ldr	r1, [pc, #36]	; 100098 <register_tm_clones+0x30>
  100070:	e0411000 	sub	r1, r1, r0
  100074:	e1a01141 	asr	r1, r1, #2
  100078:	e0811fa1 	add	r1, r1, r1, lsr #31
  10007c:	e1b010c1 	asrs	r1, r1, #1
  100080:	012fff1e 	bxeq	lr
  100084:	e59f3010 	ldr	r3, [pc, #16]	; 10009c <register_tm_clones+0x34>
  100088:	e3530000 	cmp	r3, #0
  10008c:	012fff1e 	bxeq	lr
  100090:	e12fff13 	bx	r3
  100094:	0014e3f0 	.word	0x0014e3f0
  100098:	0014e3f0 	.word	0x0014e3f0
  10009c:	00000000 	.word	0x00000000

001000a0 <__do_global_dtors_aux>:
  1000a0:	e92d4010 	push	{r4, lr}
  1000a4:	e59f402c 	ldr	r4, [pc, #44]	; 1000d8 <__do_global_dtors_aux+0x38>
  1000a8:	e5d43000 	ldrb	r3, [r4]
  1000ac:	e3530000 	cmp	r3, #0
  1000b0:	18bd8010 	popne	{r4, pc}
  1000b4:	ebffffe0 	bl	10003c <deregister_tm_clones>
  1000b8:	e59f301c 	ldr	r3, [pc, #28]	; 1000dc <__do_global_dtors_aux+0x3c>
  1000bc:	e3530000 	cmp	r3, #0
  1000c0:	0a000001 	beq	1000cc <__do_global_dtors_aux+0x2c>
  1000c4:	e59f0014 	ldr	r0, [pc, #20]	; 1000e0 <__do_global_dtors_aux+0x40>
  1000c8:	e320f000 	nop	{0}
  1000cc:	e3a03001 	mov	r3, #1
  1000d0:	e5c43000 	strb	r3, [r4]
  1000d4:	e8bd8010 	pop	{r4, pc}
  1000d8:	0014e3f0 	.word	0x0014e3f0
  1000dc:	00000000 	.word	0x00000000
  1000e0:	0014d1d8 	.word	0x0014d1d8

001000e4 <frame_dummy>:
  1000e4:	e59f3020 	ldr	r3, [pc, #32]	; 10010c <frame_dummy+0x28>
  1000e8:	e3530000 	cmp	r3, #0
  1000ec:	0a000005 	beq	100108 <frame_dummy+0x24>
  1000f0:	e92d4010 	push	{r4, lr}
  1000f4:	e59f1014 	ldr	r1, [pc, #20]	; 100110 <frame_dummy+0x2c>
  1000f8:	e59f0014 	ldr	r0, [pc, #20]	; 100114 <frame_dummy+0x30>
  1000fc:	e320f000 	nop	{0}
  100100:	e8bd4010 	pop	{r4, lr}
  100104:	eaffffd7 	b	100068 <register_tm_clones>
  100108:	eaffffd6 	b	100068 <register_tm_clones>
  10010c:	00000000 	.word	0x00000000
  100110:	0014e3f4 	.word	0x0014e3f4
  100114:	0014d1d8 	.word	0x0014d1d8

00100118 <rt_channel_open>:

#include <sys/rtt_syscall.h>
#include <rtthread.h>

int rt_channel_open(const char *name, int flags)
{
  100118:	e92d4800 	push	{fp, lr}
  10011c:	e28db004 	add	fp, sp, #4
  100120:	e24dd008 	sub	sp, sp, #8
  100124:	e50b0008 	str	r0, [fp, #-8]
  100128:	e50b100c 	str	r1, [fp, #-12]
    return syscall(_NRSYS_channel_open, name, flags);
  10012c:	e51b200c 	ldr	r2, [fp, #-12]
  100130:	e51b1008 	ldr	r1, [fp, #-8]
  100134:	e3a0002c 	mov	r0, #44	; 0x2c
  100138:	eb00f147 	bl	13c65c <syscall>
  10013c:	e1a03000 	mov	r3, r0
}
  100140:	e1a00003 	mov	r0, r3
  100144:	e24bd004 	sub	sp, fp, #4
  100148:	e8bd8800 	pop	{fp, pc}

0010014c <rt_channel_close>:

rt_err_t rt_channel_close(int fd)
{
  10014c:	e92d4800 	push	{fp, lr}
  100150:	e28db004 	add	fp, sp, #4
  100154:	e24dd008 	sub	sp, sp, #8
  100158:	e50b0008 	str	r0, [fp, #-8]
    return syscall(_NRSYS_channel_close, fd);
  10015c:	e51b1008 	ldr	r1, [fp, #-8]
  100160:	e3a0002d 	mov	r0, #45	; 0x2d
  100164:	eb00f13c 	bl	13c65c <syscall>
  100168:	e1a03000 	mov	r3, r0
}
  10016c:	e1a00003 	mov	r0, r3
  100170:	e24bd004 	sub	sp, fp, #4
  100174:	e8bd8800 	pop	{fp, pc}

00100178 <rt_channel_send_recv>:

rt_err_t rt_channel_send_recv(int fd, rt_channel_msg_t data, rt_channel_msg_t data_ret)
{
  100178:	e92d4800 	push	{fp, lr}
  10017c:	e28db004 	add	fp, sp, #4
  100180:	e24dd018 	sub	sp, sp, #24
  100184:	e50b0008 	str	r0, [fp, #-8]
  100188:	e50b100c 	str	r1, [fp, #-12]
  10018c:	e50b2010 	str	r2, [fp, #-16]
    return syscall(_NRSYS_channel_send_recv_timeout, fd, data, data_ret, RT_WAITING_FOREVER);
  100190:	e3e03000 	mvn	r3, #0
  100194:	e58d3000 	str	r3, [sp]
  100198:	e51b3010 	ldr	r3, [fp, #-16]
  10019c:	e51b200c 	ldr	r2, [fp, #-12]
  1001a0:	e51b1008 	ldr	r1, [fp, #-8]
  1001a4:	e3a0002f 	mov	r0, #47	; 0x2f
  1001a8:	eb00f12b 	bl	13c65c <syscall>
  1001ac:	e1a03000 	mov	r3, r0
}
  1001b0:	e1a00003 	mov	r0, r3
  1001b4:	e24bd004 	sub	sp, fp, #4
  1001b8:	e8bd8800 	pop	{fp, pc}

001001bc <rt_channel_send_recv_timeout>:

rt_err_t rt_channel_send_recv_timeout(int fd, rt_channel_msg_t data, rt_channel_msg_t data_ret, rt_int32_t time)
{
  1001bc:	e92d4800 	push	{fp, lr}
  1001c0:	e28db004 	add	fp, sp, #4
  1001c4:	e24dd018 	sub	sp, sp, #24
  1001c8:	e50b0008 	str	r0, [fp, #-8]
  1001cc:	e50b100c 	str	r1, [fp, #-12]
  1001d0:	e50b2010 	str	r2, [fp, #-16]
  1001d4:	e50b3014 	str	r3, [fp, #-20]	; 0xffffffec
    return syscall(_NRSYS_channel_send_recv_timeout, fd, data, data_ret, time);
  1001d8:	e51b3014 	ldr	r3, [fp, #-20]	; 0xffffffec
  1001dc:	e58d3000 	str	r3, [sp]
  1001e0:	e51b3010 	ldr	r3, [fp, #-16]
  1001e4:	e51b200c 	ldr	r2, [fp, #-12]
  1001e8:	e51b1008 	ldr	r1, [fp, #-8]
  1001ec:	e3a0002f 	mov	r0, #47	; 0x2f
  1001f0:	eb00f119 	bl	13c65c <syscall>
  1001f4:	e1a03000 	mov	r3, r0
}
  1001f8:	e1a00003 	mov	r0, r3
  1001fc:	e24bd004 	sub	sp, fp, #4
  100200:	e8bd8800 	pop	{fp, pc}

00100204 <rt_channel_send>:

rt_err_t rt_channel_send(int fd, rt_channel_msg_t data)
{
  100204:	e92d4800 	push	{fp, lr}
  100208:	e28db004 	add	fp, sp, #4
  10020c:	e24dd008 	sub	sp, sp, #8
  100210:	e50b0008 	str	r0, [fp, #-8]
  100214:	e50b100c 	str	r1, [fp, #-12]
    return syscall(_NRSYS_channel_send, fd, data);
  100218:	e51b200c 	ldr	r2, [fp, #-12]
  10021c:	e51b1008 	ldr	r1, [fp, #-8]
  100220:	e3a0002e 	mov	r0, #46	; 0x2e
  100224:	eb00f10c 	bl	13c65c <syscall>
  100228:	e1a03000 	mov	r3, r0
}
  10022c:	e1a00003 	mov	r0, r3
  100230:	e24bd004 	sub	sp, fp, #4
  100234:	e8bd8800 	pop	{fp, pc}

00100238 <rt_channel_reply>:

rt_err_t rt_channel_reply(int fd, rt_channel_msg_t data)
{
  100238:	e92d4800 	push	{fp, lr}
  10023c:	e28db004 	add	fp, sp, #4
  100240:	e24dd008 	sub	sp, sp, #8
  100244:	e50b0008 	str	r0, [fp, #-8]
  100248:	e50b100c 	str	r1, [fp, #-12]
    return syscall(_NRSYS_channel_reply, fd, data);
  10024c:	e51b200c 	ldr	r2, [fp, #-12]
  100250:	e51b1008 	ldr	r1, [fp, #-8]
  100254:	e3a00030 	mov	r0, #48	; 0x30
  100258:	eb00f0ff 	bl	13c65c <syscall>
  10025c:	e1a03000 	mov	r3, r0
}
  100260:	e1a00003 	mov	r0, r3
  100264:	e24bd004 	sub	sp, fp, #4
  100268:	e8bd8800 	pop	{fp, pc}

0010026c <rt_channel_recv>:

rt_err_t rt_channel_recv(int fd, rt_channel_msg_t data)
{
  10026c:	e92d4800 	push	{fp, lr}
  100270:	e28db004 	add	fp, sp, #4
  100274:	e24dd008 	sub	sp, sp, #8
  100278:	e50b0008 	str	r0, [fp, #-8]
  10027c:	e50b100c 	str	r1, [fp, #-12]
    return syscall(_NRSYS_channel_recv_timeout, fd, data, RT_WAITING_FOREVER);
  100280:	e3e03000 	mvn	r3, #0
  100284:	e51b200c 	ldr	r2, [fp, #-12]
  100288:	e51b1008 	ldr	r1, [fp, #-8]
  10028c:	e3a00031 	mov	r0, #49	; 0x31
  100290:	eb00f0f1 	bl	13c65c <syscall>
  100294:	e1a03000 	mov	r3, r0
}
  100298:	e1a00003 	mov	r0, r3
  10029c:	e24bd004 	sub	sp, fp, #4
  1002a0:	e8bd8800 	pop	{fp, pc}

001002a4 <rt_channel_recv_timeout>:

rt_err_t rt_channel_recv_timeout(int fd, rt_channel_msg_t data, rt_int32_t time)
{
  1002a4:	e92d4800 	push	{fp, lr}
  1002a8:	e28db004 	add	fp, sp, #4
  1002ac:	e24dd010 	sub	sp, sp, #16
  1002b0:	e50b0008 	str	r0, [fp, #-8]
  1002b4:	e50b100c 	str	r1, [fp, #-12]
  1002b8:	e50b2010 	str	r2, [fp, #-16]
    return syscall(_NRSYS_channel_recv_timeout, fd, data, time);
  1002bc:	e51b3010 	ldr	r3, [fp, #-16]
  1002c0:	e51b200c 	ldr	r2, [fp, #-12]
  1002c4:	e51b1008 	ldr	r1, [fp, #-8]
  1002c8:	e3a00031 	mov	r0, #49	; 0x31
  1002cc:	eb00f0e2 	bl	13c65c <syscall>
  1002d0:	e1a03000 	mov	r3, r0
}
  1002d4:	e1a00003 	mov	r0, r3
  1002d8:	e24bd004 	sub	sp, fp, #4
  1002dc:	e8bd8800 	pop	{fp, pc}

001002e0 <rt_channel_peek>:

rt_err_t rt_channel_peek(int fd, rt_channel_msg_t data)
{
  1002e0:	e92d4800 	push	{fp, lr}
  1002e4:	e28db004 	add	fp, sp, #4
  1002e8:	e24dd008 	sub	sp, sp, #8
  1002ec:	e50b0008 	str	r0, [fp, #-8]
  1002f0:	e50b100c 	str	r1, [fp, #-12]
    return syscall(_NRSYS_channel_recv_timeout, fd, data, 0);
  1002f4:	e3a03000 	mov	r3, #0
  1002f8:	e51b200c 	ldr	r2, [fp, #-12]
  1002fc:	e51b1008 	ldr	r1, [fp, #-8]
  100300:	e3a00031 	mov	r0, #49	; 0x31
  100304:	eb00f0d4 	bl	13c65c <syscall>
  100308:	e1a03000 	mov	r3, r0
}
  10030c:	e1a00003 	mov	r0, r3
  100310:	e24bd004 	sub	sp, fp, #4
  100314:	e8bd8800 	pop	{fp, pc}

00100318 <rt_completion_init>:
 * 2019-10-01     Bernard      code cleanup
 */
#include <rtdevice.h>

void rt_completion_init(struct rt_completion *completion)
{
  100318:	e92d4800 	push	{fp, lr}
  10031c:	e28db004 	add	fp, sp, #4
  100320:	e24dd008 	sub	sp, sp, #8
  100324:	e50b0008 	str	r0, [fp, #-8]
    if (completion && completion->flag == 0)
  100328:	e51b3008 	ldr	r3, [fp, #-8]
  10032c:	e3530000 	cmp	r3, #0
  100330:	0a00000d 	beq	10036c <rt_completion_init+0x54>
  100334:	e51b3008 	ldr	r3, [fp, #-8]
  100338:	e5933000 	ldr	r3, [r3]
  10033c:	e3530000 	cmp	r3, #0
  100340:	1a000009 	bne	10036c <rt_completion_init+0x54>
    {
        completion->flag = 0x5A5A;
  100344:	e51b3008 	ldr	r3, [fp, #-8]
  100348:	e3052a5a 	movw	r2, #23130	; 0x5a5a
  10034c:	e5832000 	str	r2, [r3]
        completion->wait_event = rt_event_create("completion", RT_IPC_FLAG_FIFO);
  100350:	e3a01000 	mov	r1, #0
  100354:	e30505a0 	movw	r0, #21920	; 0x55a0
  100358:	e3400014 	movt	r0, #20
  10035c:	eb0005e5 	bl	101af8 <rt_event_create>
  100360:	e1a02000 	mov	r2, r0
  100364:	e51b3008 	ldr	r3, [fp, #-8]
  100368:	e5832004 	str	r2, [r3, #4]
    }
}
  10036c:	e320f000 	nop	{0}
  100370:	e24bd004 	sub	sp, fp, #4
  100374:	e8bd8800 	pop	{fp, pc}

00100378 <rt_completion_wait>:

rt_err_t rt_completion_wait(struct rt_completion *completion,
    rt_int32_t timeout)
{
  100378:	e92d4800 	push	{fp, lr}
  10037c:	e28db004 	add	fp, sp, #4
  100380:	e24dd018 	sub	sp, sp, #24
  100384:	e50b0010 	str	r0, [fp, #-16]
  100388:	e50b1014 	str	r1, [fp, #-20]	; 0xffffffec
    rt_err_t ret;
    rt_uint32_t recv = 0;
  10038c:	e3a03000 	mov	r3, #0
  100390:	e50b300c 	str	r3, [fp, #-12]

    ret = rt_event_recv(completion->wait_event, 0x01, RT_EVENT_FLAG_OR | RT_EVENT_FLAG_CLEAR, timeout, &recv);
  100394:	e51b3010 	ldr	r3, [fp, #-16]
  100398:	e5930004 	ldr	r0, [r3, #4]
  10039c:	e24b300c 	sub	r3, fp, #12
  1003a0:	e58d3000 	str	r3, [sp]
  1003a4:	e51b3014 	ldr	r3, [fp, #-20]	; 0xffffffec
  1003a8:	e3a02006 	mov	r2, #6
  1003ac:	e3a01001 	mov	r1, #1
  1003b0:	eb000684 	bl	101dc8 <rt_event_recv>
  1003b4:	e50b0008 	str	r0, [fp, #-8]

    return ret;
  1003b8:	e51b3008 	ldr	r3, [fp, #-8]
}
  1003bc:	e1a00003 	mov	r0, r3
  1003c0:	e24bd004 	sub	sp, fp, #4
  1003c4:	e8bd8800 	pop	{fp, pc}

001003c8 <rt_completion_done>:

void rt_completion_done(struct rt_completion *completion)
{
  1003c8:	e92d4800 	push	{fp, lr}
  1003cc:	e28db004 	add	fp, sp, #4
  1003d0:	e24dd008 	sub	sp, sp, #8
  1003d4:	e50b0008 	str	r0, [fp, #-8]
    rt_event_send(completion->wait_event, 0x01);
  1003d8:	e51b3008 	ldr	r3, [fp, #-8]
  1003dc:	e5933004 	ldr	r3, [r3, #4]
  1003e0:	e3a01001 	mov	r1, #1
  1003e4:	e1a00003 	mov	r0, r3
  1003e8:	eb000658 	bl	101d50 <rt_event_send>
}
  1003ec:	e320f000 	nop	{0}
  1003f0:	e24bd004 	sub	sp, fp, #4
  1003f4:	e8bd8800 	pop	{fp, pc}

001003f8 <rt_device_init>:

#include <sys/rtt_syscall.h>
#include <rtthread.h>

rt_err_t rt_device_init(rt_device_t dev)
{
  1003f8:	e92d4800 	push	{fp, lr}
  1003fc:	e28db004 	add	fp, sp, #4
  100400:	e24dd008 	sub	sp, sp, #8
  100404:	e50b0008 	str	r0, [fp, #-8]
    return syscall(_NRSYS_rt_device_init, dev);
  100408:	e51b1008 	ldr	r1, [fp, #-8]
  10040c:	e3a0003b 	mov	r0, #59	; 0x3b
  100410:	eb00f091 	bl	13c65c <syscall>
  100414:	e1a03000 	mov	r3, r0
}
  100418:	e1a00003 	mov	r0, r3
  10041c:	e24bd004 	sub	sp, fp, #4
  100420:	e8bd8800 	pop	{fp, pc}

00100424 <rt_device_register>:

rt_err_t rt_device_register(rt_device_t dev,
        const char *name,
        rt_uint16_t flags)
{
  100424:	e92d4800 	push	{fp, lr}
  100428:	e28db004 	add	fp, sp, #4
  10042c:	e24dd010 	sub	sp, sp, #16
  100430:	e50b0008 	str	r0, [fp, #-8]
  100434:	e50b100c 	str	r1, [fp, #-12]
  100438:	e1a03002 	mov	r3, r2
  10043c:	e14b30be 	strh	r3, [fp, #-14]
    return syscall(_NRSYS_rt_device_register, dev, name, flags);
  100440:	e15b30be 	ldrh	r3, [fp, #-14]
  100444:	e51b200c 	ldr	r2, [fp, #-12]
  100448:	e51b1008 	ldr	r1, [fp, #-8]
  10044c:	e3a0003c 	mov	r0, #60	; 0x3c
  100450:	eb00f081 	bl	13c65c <syscall>
  100454:	e1a03000 	mov	r3, r0
}
  100458:	e1a00003 	mov	r0, r3
  10045c:	e24bd004 	sub	sp, fp, #4
  100460:	e8bd8800 	pop	{fp, pc}

00100464 <rt_device_control>:

rt_err_t rt_device_control(rt_device_t dev, int cmd, void *arg)
{
  100464:	e92d4800 	push	{fp, lr}
  100468:	e28db004 	add	fp, sp, #4
  10046c:	e24dd010 	sub	sp, sp, #16
  100470:	e50b0008 	str	r0, [fp, #-8]
  100474:	e50b100c 	str	r1, [fp, #-12]
  100478:	e50b2010 	str	r2, [fp, #-16]
    return syscall(_NRSYS_rt_device_control, dev, cmd, arg);
  10047c:	e51b3010 	ldr	r3, [fp, #-16]
  100480:	e51b200c 	ldr	r2, [fp, #-12]
  100484:	e51b1008 	ldr	r1, [fp, #-8]
  100488:	e3a0003d 	mov	r0, #61	; 0x3d
  10048c:	eb00f072 	bl	13c65c <syscall>
  100490:	e1a03000 	mov	r3, r0
}
  100494:	e1a00003 	mov	r0, r3
  100498:	e24bd004 	sub	sp, fp, #4
  10049c:	e8bd8800 	pop	{fp, pc}

001004a0 <rt_device_find>:

rt_device_t rt_device_find(const char *name)
{
  1004a0:	e92d4800 	push	{fp, lr}
  1004a4:	e28db004 	add	fp, sp, #4
  1004a8:	e24dd008 	sub	sp, sp, #8
  1004ac:	e50b0008 	str	r0, [fp, #-8]
    return (rt_device_t)syscall(_NRSYS_rt_device_find, name);
  1004b0:	e51b1008 	ldr	r1, [fp, #-8]
  1004b4:	e3a0003e 	mov	r0, #62	; 0x3e
  1004b8:	eb00f067 	bl	13c65c <syscall>
  1004bc:	e1a03000 	mov	r3, r0
}
  1004c0:	e1a00003 	mov	r0, r3
  1004c4:	e24bd004 	sub	sp, fp, #4
  1004c8:	e8bd8800 	pop	{fp, pc}

001004cc <rt_device_open>:

rt_err_t rt_device_open(rt_device_t dev, rt_uint16_t oflag)
{
  1004cc:	e92d4800 	push	{fp, lr}
  1004d0:	e28db004 	add	fp, sp, #4
  1004d4:	e24dd008 	sub	sp, sp, #8
  1004d8:	e50b0008 	str	r0, [fp, #-8]
  1004dc:	e1a03001 	mov	r3, r1
  1004e0:	e14b30ba 	strh	r3, [fp, #-10]
    return syscall(_NRSYS_rt_device_open, dev, oflag);
  1004e4:	e15b30ba 	ldrh	r3, [fp, #-10]
  1004e8:	e1a02003 	mov	r2, r3
  1004ec:	e51b1008 	ldr	r1, [fp, #-8]
  1004f0:	e3a0003f 	mov	r0, #63	; 0x3f
  1004f4:	eb00f058 	bl	13c65c <syscall>
  1004f8:	e1a03000 	mov	r3, r0
}
  1004fc:	e1a00003 	mov	r0, r3
  100500:	e24bd004 	sub	sp, fp, #4
  100504:	e8bd8800 	pop	{fp, pc}

00100508 <rt_device_close>:

rt_err_t rt_device_close(rt_device_t dev)
{
  100508:	e92d4800 	push	{fp, lr}
  10050c:	e28db004 	add	fp, sp, #4
  100510:	e24dd008 	sub	sp, sp, #8
  100514:	e50b0008 	str	r0, [fp, #-8]
    return syscall(_NRSYS_rt_device_close, dev);
  100518:	e51b1008 	ldr	r1, [fp, #-8]
  10051c:	e3a00040 	mov	r0, #64	; 0x40
  100520:	eb00f04d 	bl	13c65c <syscall>
  100524:	e1a03000 	mov	r3, r0
}
  100528:	e1a00003 	mov	r0, r3
  10052c:	e24bd004 	sub	sp, fp, #4
  100530:	e8bd8800 	pop	{fp, pc}

00100534 <rt_device_read>:

rt_size_t rt_device_read(rt_device_t dev,
        rt_off_t    pos,
        void       *buffer,
        rt_size_t   size)
{
  100534:	e92d4800 	push	{fp, lr}
  100538:	e28db004 	add	fp, sp, #4
  10053c:	e24dd018 	sub	sp, sp, #24
  100540:	e50b0008 	str	r0, [fp, #-8]
  100544:	e50b100c 	str	r1, [fp, #-12]
  100548:	e50b2010 	str	r2, [fp, #-16]
  10054c:	e50b3014 	str	r3, [fp, #-20]	; 0xffffffec
    return syscall(_NRSYS_rt_device_read, dev, pos, buffer, size);
  100550:	e51b3014 	ldr	r3, [fp, #-20]	; 0xffffffec
  100554:	e58d3000 	str	r3, [sp]
  100558:	e51b3010 	ldr	r3, [fp, #-16]
  10055c:	e51b200c 	ldr	r2, [fp, #-12]
  100560:	e51b1008 	ldr	r1, [fp, #-8]
  100564:	e3a00041 	mov	r0, #65	; 0x41
  100568:	eb00f03b 	bl	13c65c <syscall>
  10056c:	e1a03000 	mov	r3, r0
}
  100570:	e1a00003 	mov	r0, r3
  100574:	e24bd004 	sub	sp, fp, #4
  100578:	e8bd8800 	pop	{fp, pc}

0010057c <rt_device_write>:

rt_size_t rt_device_write(rt_device_t dev,
        rt_off_t    pos,
        const void *buffer,
        rt_size_t   size)
{
  10057c:	e92d4800 	push	{fp, lr}
  100580:	e28db004 	add	fp, sp, #4
  100584:	e24dd018 	sub	sp, sp, #24
  100588:	e50b0008 	str	r0, [fp, #-8]
  10058c:	e50b100c 	str	r1, [fp, #-12]
  100590:	e50b2010 	str	r2, [fp, #-16]
  100594:	e50b3014 	str	r3, [fp, #-20]	; 0xffffffec
    return syscall(_NRSYS_rt_device_write, dev, pos, buffer, size);;
  100598:	e51b3014 	ldr	r3, [fp, #-20]	; 0xffffffec
  10059c:	e58d3000 	str	r3, [sp]
  1005a0:	e51b3010 	ldr	r3, [fp, #-16]
  1005a4:	e51b200c 	ldr	r2, [fp, #-12]
  1005a8:	e51b1008 	ldr	r1, [fp, #-8]
  1005ac:	e3a00042 	mov	r0, #66	; 0x42
  1005b0:	eb00f029 	bl	13c65c <syscall>
  1005b4:	e1a03000 	mov	r3, r0
}
  1005b8:	e1a00003 	mov	r0, r3
  1005bc:	e24bd004 	sub	sp, fp, #4
  1005c0:	e8bd8800 	pop	{fp, pc}

001005c4 <closesocket>:
#include <netinet/in.h>
#include <fcntl.h>
#include <time.h>

int closesocket(int s)
{
  1005c4:	e92d4800 	push	{fp, lr}
  1005c8:	e28db004 	add	fp, sp, #4
  1005cc:	e24dd008 	sub	sp, sp, #8
  1005d0:	e50b0008 	str	r0, [fp, #-8]
    return (int)syscall(_NRSYS_closesocket, s);
  1005d4:	e51b1008 	ldr	r1, [fp, #-8]
  1005d8:	e3a00053 	mov	r0, #83	; 0x53
  1005dc:	eb00f01e 	bl	13c65c <syscall>
  1005e0:	e1a03000 	mov	r3, r0
}
  1005e4:	e1a00003 	mov	r0, r3
  1005e8:	e24bd004 	sub	sp, fp, #4
  1005ec:	e8bd8800 	pop	{fp, pc}

001005f0 <getaddrinfo>:

int getaddrinfo(const char *restrict host, const char *restrict serv, const struct addrinfo *restrict hint, struct addrinfo **restrict res)
{
  1005f0:	e92d4800 	push	{fp, lr}
  1005f4:	e28db004 	add	fp, sp, #4
  1005f8:	e24dd020 	sub	sp, sp, #32
  1005fc:	e50b0010 	str	r0, [fp, #-16]
  100600:	e50b1014 	str	r1, [fp, #-20]	; 0xffffffec
  100604:	e50b2018 	str	r2, [fp, #-24]	; 0xffffffe8
  100608:	e50b301c 	str	r3, [fp, #-28]	; 0xffffffe4
    struct addrinfo *ret = NULL;
  10060c:	e3a03000 	mov	r3, #0
  100610:	e50b3008 	str	r3, [fp, #-8]

    ret = (struct addrinfo *) malloc(sizeof(struct addrinfo) + sizeof(struct sockaddr));
  100614:	e3a00030 	mov	r0, #48	; 0x30
  100618:	eb00f3cc 	bl	13d550 <malloc>
  10061c:	e1a03000 	mov	r3, r0
  100620:	e50b3008 	str	r3, [fp, #-8]
    if (ret)
  100624:	e51b3008 	ldr	r3, [fp, #-8]
  100628:	e3530000 	cmp	r3, #0
  10062c:	0a000011 	beq	100678 <getaddrinfo+0x88>
    {
        ret->ai_addr = (struct sockaddr *)(ret + 1);
  100630:	e51b3008 	ldr	r3, [fp, #-8]
  100634:	e2832020 	add	r2, r3, #32
  100638:	e51b3008 	ldr	r3, [fp, #-8]
  10063c:	e5832014 	str	r2, [r3, #20]

        /* invoke syscall */
        int result = syscall(_NRSYS_getaddrinfo, host, serv, hint, ret);
  100640:	e51b3008 	ldr	r3, [fp, #-8]
  100644:	e58d3000 	str	r3, [sp]
  100648:	e51b3018 	ldr	r3, [fp, #-24]	; 0xffffffe8
  10064c:	e51b2014 	ldr	r2, [fp, #-20]	; 0xffffffec
  100650:	e51b1010 	ldr	r1, [fp, #-16]
  100654:	e3a00054 	mov	r0, #84	; 0x54
  100658:	eb00efff 	bl	13c65c <syscall>
  10065c:	e50b000c 	str	r0, [fp, #-12]
        if (result == 0)
  100660:	e51b300c 	ldr	r3, [fp, #-12]
  100664:	e3530000 	cmp	r3, #0
  100668:	1a000002 	bne	100678 <getaddrinfo+0x88>
        {
            *res = ret;
  10066c:	e51b301c 	ldr	r3, [fp, #-28]	; 0xffffffe4
  100670:	e51b2008 	ldr	r2, [fp, #-8]
  100674:	e5832000 	str	r2, [r3]
        }
    }

    return 0;
  100678:	e3a03000 	mov	r3, #0
}
  10067c:	e1a00003 	mov	r0, r3
  100680:	e24bd004 	sub	sp, fp, #4
  100684:	e8bd8800 	pop	{fp, pc}

00100688 <freeaddrinfo>:

void freeaddrinfo(struct addrinfo *p)
{
  100688:	e92d4800 	push	{fp, lr}
  10068c:	e28db004 	add	fp, sp, #4
  100690:	e24dd008 	sub	sp, sp, #8
  100694:	e50b0008 	str	r0, [fp, #-8]
    /* p->ai_canonname, p->ai_next should be NULL. */
    free(p);
  100698:	e51b0008 	ldr	r0, [fp, #-8]
  10069c:	eb00f567 	bl	13dc40 <free>
}
  1006a0:	e320f000 	nop	{0}
  1006a4:	e24bd004 	sub	sp, fp, #4
  1006a8:	e8bd8800 	pop	{fp, pc}

001006ac <gethostbyname2_r>:

int gethostbyname2_r(const char *name, int af, struct hostent *ret,
                    char *buf, size_t buflen,
                    struct hostent **result, int *err)
{
  1006ac:	e92d4800 	push	{fp, lr}
  1006b0:	e28db004 	add	fp, sp, #4
  1006b4:	e24dd020 	sub	sp, sp, #32
  1006b8:	e50b0008 	str	r0, [fp, #-8]
  1006bc:	e50b100c 	str	r1, [fp, #-12]
  1006c0:	e50b2010 	str	r2, [fp, #-16]
  1006c4:	e50b3014 	str	r3, [fp, #-20]	; 0xffffffec
    return syscall(_NRSYS_gethostbyname2_r, name, af, ret, buf, buflen, result, err);
  1006c8:	e59b300c 	ldr	r3, [fp, #12]
  1006cc:	e58d300c 	str	r3, [sp, #12]
  1006d0:	e59b3008 	ldr	r3, [fp, #8]
  1006d4:	e58d3008 	str	r3, [sp, #8]
  1006d8:	e59b3004 	ldr	r3, [fp, #4]
  1006dc:	e58d3004 	str	r3, [sp, #4]
  1006e0:	e51b3014 	ldr	r3, [fp, #-20]	; 0xffffffec
  1006e4:	e58d3000 	str	r3, [sp]
  1006e8:	e51b3010 	ldr	r3, [fp, #-16]
  1006ec:	e51b200c 	ldr	r2, [fp, #-12]
  1006f0:	e51b1008 	ldr	r1, [fp, #-8]
  1006f4:	e3a00055 	mov	r0, #85	; 0x55
  1006f8:	eb00efd7 	bl	13c65c <syscall>
  1006fc:	e1a03000 	mov	r3, r0
}
  100700:	e1a00003 	mov	r0, r3
  100704:	e24bd004 	sub	sp, fp, #4
  100708:	e8bd8800 	pop	{fp, pc}

0010070c <setnonblocking>:

/* set non-blocking */
int setnonblocking(int fd)
{
  10070c:	e92d4800 	push	{fp, lr}
  100710:	e28db004 	add	fp, sp, #4
  100714:	e24dd010 	sub	sp, sp, #16
  100718:	e50b0010 	str	r0, [fp, #-16]
    int old_option = fcntl( fd, F_GETFL, 0);
  10071c:	e3a02000 	mov	r2, #0
  100720:	e3a01003 	mov	r1, #3
  100724:	e51b0010 	ldr	r0, [fp, #-16]
  100728:	eb00e2b9 	bl	139214 <fcntl>
  10072c:	e50b0008 	str	r0, [fp, #-8]
    int new_option = old_option | O_NONBLOCK;
  100730:	e51b3008 	ldr	r3, [fp, #-8]
  100734:	e3833b02 	orr	r3, r3, #2048	; 0x800
  100738:	e50b300c 	str	r3, [fp, #-12]
    if (fcntl(fd, F_SETFL, new_option) == -1)
  10073c:	e51b200c 	ldr	r2, [fp, #-12]
  100740:	e3a01004 	mov	r1, #4
  100744:	e51b0010 	ldr	r0, [fp, #-16]
  100748:	eb00e2b1 	bl	139214 <fcntl>
  10074c:	e1a03000 	mov	r3, r0
  100750:	e3730001 	cmn	r3, #1
  100754:	1a000004 	bne	10076c <setnonblocking+0x60>
    {
        printf("Set noblocking error!\n");
  100758:	e30505ac 	movw	r0, #21932	; 0x55ac
  10075c:	e3400014 	movt	r0, #20
  100760:	eb00f822 	bl	13e7f0 <puts>
        return 1;
  100764:	e3a03001 	mov	r3, #1
  100768:	ea000000 	b	100770 <setnonblocking+0x64>
    }
    return old_option;
  10076c:	e51b3008 	ldr	r3, [fp, #-8]
}
  100770:	e1a00003 	mov	r0, r3
  100774:	e24bd004 	sub	sp, fp, #4
  100778:	e8bd8800 	pop	{fp, pc}

0010077c <socketpair>:

int socketpair(int domain, int type, int protocol, int sv[2])
{
  10077c:	e92d4810 	push	{r4, fp, lr}
  100780:	e28db008 	add	fp, sp, #8
  100784:	e24ddf43 	sub	sp, sp, #268	; 0x10c
  100788:	e50b0100 	str	r0, [fp, #-256]	; 0xffffff00
  10078c:	e50b1104 	str	r1, [fp, #-260]	; 0xfffffefc
  100790:	e50b2108 	str	r2, [fp, #-264]	; 0xfffffef8
  100794:	e50b310c 	str	r3, [fp, #-268]	; 0xfffffef4
    int listenfd = -1, acceptfd = -1, clientfd = -1;
  100798:	e3e03000 	mvn	r3, #0
  10079c:	e50b301c 	str	r3, [fp, #-28]	; 0xffffffe4
  1007a0:	e3e03000 	mvn	r3, #0
  1007a4:	e50b3020 	str	r3, [fp, #-32]	; 0xffffffe0
  1007a8:	e3e03000 	mvn	r3, #0
  1007ac:	e50b3010 	str	r3, [fp, #-16]
    /* for server, accept, client */
    struct sockaddr_in saddr, aaddr, caddr;
    socklen_t len = sizeof(struct sockaddr_in);
  1007b0:	e3a03010 	mov	r3, #16
  1007b4:	e50b3064 	str	r3, [fp, #-100]	; 0xffffff9c
    int on = 1;
  1007b8:	e3a03001 	mov	r3, #1
  1007bc:	e50b3068 	str	r3, [fp, #-104]	; 0xffffff98
    int fdopt;
    int rt_port;

    /* for select */
    int maxfdp = 0;
  1007c0:	e3a03000 	mov	r3, #0
  1007c4:	e50b3024 	str	r3, [fp, #-36]	; 0xffffffdc
    int rst;
    fd_set rfd;
    struct timeval timeout = {0, 1000};
  1007c8:	e3a02000 	mov	r2, #0
  1007cc:	e3a03000 	mov	r3, #0
  1007d0:	e14b2ffc 	strd	r2, [fp, #-252]	; 0xffffff04
  1007d4:	e3a03ffa 	mov	r3, #1000	; 0x3e8
  1007d8:	e50b30f4 	str	r3, [fp, #-244]	; 0xffffff0c

    /* server socket */
    if ((listenfd = socket(domain, type, protocol)) < 0)
  1007dc:	e51b2108 	ldr	r2, [fp, #-264]	; 0xfffffef8
  1007e0:	e51b1104 	ldr	r1, [fp, #-260]	; 0xfffffefc
  1007e4:	e51b0100 	ldr	r0, [fp, #-256]	; 0xffffff00
  1007e8:	eb00f694 	bl	13e240 <socket>
  1007ec:	e50b001c 	str	r0, [fp, #-28]	; 0xffffffe4
  1007f0:	e51b301c 	ldr	r3, [fp, #-28]	; 0xffffffe4
  1007f4:	e3530000 	cmp	r3, #0
  1007f8:	aa00000f 	bge	10083c <socketpair+0xc0>
    {
        printf("Create listenfd socket error: %s(errno: %d)\n", strerror(errno), errno);
  1007fc:	eb00e235 	bl	1390d8 <__errno_location>
  100800:	e1a03000 	mov	r3, r0
  100804:	e5933000 	ldr	r3, [r3]
  100808:	e1a00003 	mov	r0, r3
  10080c:	eb00e253 	bl	139160 <strerror>
  100810:	e1a04000 	mov	r4, r0
  100814:	eb00e22f 	bl	1390d8 <__errno_location>
  100818:	e1a03000 	mov	r3, r0
  10081c:	e5933000 	ldr	r3, [r3]
  100820:	e1a02003 	mov	r2, r3
  100824:	e1a01004 	mov	r1, r4
  100828:	e30505c4 	movw	r0, #21956	; 0x55c4
  10082c:	e3400014 	movt	r0, #20
  100830:	eb00f7e0 	bl	13e7b8 <printf>
        return -1;
  100834:	e3e03000 	mvn	r3, #0
  100838:	ea000117 	b	100c9c <socketpair+0x520>
    }
    /* non-blocking */
    setnonblocking(listenfd);
  10083c:	e51b001c 	ldr	r0, [fp, #-28]	; 0xffffffe4
  100840:	ebffffb1 	bl	10070c <setnonblocking>

    /* get random port: 5001~65001 */
    srand((unsigned)time(NULL));
  100844:	e3a00000 	mov	r0, #0
  100848:	eb0109be 	bl	142f48 <time>
  10084c:	e1a02000 	mov	r2, r0
  100850:	e1a03001 	mov	r3, r1
  100854:	e1a03002 	mov	r3, r2
  100858:	e1a00003 	mov	r0, r3
  10085c:	eb00f6c4 	bl	13e374 <srand>
    rt_port = rand() % 60000 + 5001;
  100860:	eb00f6c9 	bl	13e38c <rand>
  100864:	e1a02000 	mov	r2, r0
  100868:	e30b3273 	movw	r3, #45683	; 0xb273
  10086c:	e34435e7 	movt	r3, #17895	; 0x45e7
  100870:	e0c10392 	smull	r0, r1, r2, r3
  100874:	e1a01741 	asr	r1, r1, #14
  100878:	e1a03fc2 	asr	r3, r2, #31
  10087c:	e0413003 	sub	r3, r1, r3
  100880:	e30e1a60 	movw	r1, #60000	; 0xea60
  100884:	e0030391 	mul	r3, r1, r3
  100888:	e0423003 	sub	r3, r2, r3
  10088c:	e2833d4e 	add	r3, r3, #4992	; 0x1380
  100890:	e2833009 	add	r3, r3, #9
  100894:	e50b3028 	str	r3, [fp, #-40]	; 0xffffffd8

    /* bind and listen */
    memset(&saddr, 0, sizeof(saddr));
  100898:	e24b3040 	sub	r3, fp, #64	; 0x40
  10089c:	e3a02010 	mov	r2, #16
  1008a0:	e3a01000 	mov	r1, #0
  1008a4:	e1a00003 	mov	r0, r3
  1008a8:	eb0102f1 	bl	141474 <memset>
    memset(&aaddr, 0, sizeof(aaddr));
  1008ac:	e24b3050 	sub	r3, fp, #80	; 0x50
  1008b0:	e3a02010 	mov	r2, #16
  1008b4:	e3a01000 	mov	r1, #0
  1008b8:	e1a00003 	mov	r0, r3
  1008bc:	eb0102ec 	bl	141474 <memset>
    saddr.sin_family = domain;
  1008c0:	e51b3100 	ldr	r3, [fp, #-256]	; 0xffffff00
  1008c4:	e6ff3073 	uxth	r3, r3
  1008c8:	e14b34b0 	strh	r3, [fp, #-64]	; 0xffffffc0
    saddr.sin_port = htons(rt_port);
  1008cc:	e51b3028 	ldr	r3, [fp, #-40]	; 0xffffffd8
  1008d0:	e6ff3073 	uxth	r3, r3
  1008d4:	e1a00003 	mov	r0, r3
  1008d8:	eb00f626 	bl	13e178 <htons>
  1008dc:	e1a03000 	mov	r3, r0
  1008e0:	e14b33be 	strh	r3, [fp, #-62]	; 0xffffffc2
    saddr.sin_addr.s_addr = htonl(INADDR_ANY);
  1008e4:	e3a00000 	mov	r0, #0
  1008e8:	eb00f61d 	bl	13e164 <htonl>
  1008ec:	e1a03000 	mov	r3, r0
  1008f0:	e50b303c 	str	r3, [fp, #-60]	; 0xffffffc4

    if (setsockopt(listenfd, SOL_SOCKET, SO_REUSEADDR, (const char*)&on, sizeof(int)) < 0)
  1008f4:	e24b2068 	sub	r2, fp, #104	; 0x68
  1008f8:	e3a03004 	mov	r3, #4
  1008fc:	e58d3000 	str	r3, [sp]
  100900:	e1a03002 	mov	r3, r2
  100904:	e3a02002 	mov	r2, #2
  100908:	e3a01001 	mov	r1, #1
  10090c:	e51b001c 	ldr	r0, [fp, #-28]	; 0xffffffe4
  100910:	eb00f631 	bl	13e1dc <setsockopt>
  100914:	e1a03000 	mov	r3, r0
  100918:	e3530000 	cmp	r3, #0
  10091c:	aa000003 	bge	100930 <socketpair+0x1b4>
    {
        perror("Setsockopt reuseadd failed");
  100920:	e30505f4 	movw	r0, #22004	; 0x55f4
  100924:	e3400014 	movt	r0, #20
  100928:	eb00f759 	bl	13e694 <perror>
        goto __exit;
  10092c:	ea0000cf 	b	100c70 <socketpair+0x4f4>
    }

    if (bind(listenfd, (struct sockaddr*)&saddr, sizeof(saddr)) == -1)
  100930:	e24b3040 	sub	r3, fp, #64	; 0x40
  100934:	e3a02010 	mov	r2, #16
  100938:	e1a01003 	mov	r1, r3
  10093c:	e51b001c 	ldr	r0, [fp, #-28]	; 0xffffffe4
  100940:	eb00f5e2 	bl	13e0d0 <bind>
  100944:	e1a03000 	mov	r3, r0
  100948:	e3730001 	cmn	r3, #1
  10094c:	1a00000e 	bne	10098c <socketpair+0x210>
    {
        printf("Bind socket error: %s(errno: %d), fd=%d\n", strerror(errno), errno, listenfd);
  100950:	eb00e1e0 	bl	1390d8 <__errno_location>
  100954:	e1a03000 	mov	r3, r0
  100958:	e5933000 	ldr	r3, [r3]
  10095c:	e1a00003 	mov	r0, r3
  100960:	eb00e1fe 	bl	139160 <strerror>
  100964:	e1a04000 	mov	r4, r0
  100968:	eb00e1da 	bl	1390d8 <__errno_location>
  10096c:	e1a03000 	mov	r3, r0
  100970:	e5932000 	ldr	r2, [r3]
  100974:	e51b301c 	ldr	r3, [fp, #-28]	; 0xffffffe4
  100978:	e1a01004 	mov	r1, r4
  10097c:	e3050610 	movw	r0, #22032	; 0x5610
  100980:	e3400014 	movt	r0, #20
  100984:	eb00f78b 	bl	13e7b8 <printf>
        goto __exit;
  100988:	ea0000b8 	b	100c70 <socketpair+0x4f4>
    }

    if (listen(listenfd, 10) == -1)
  10098c:	e3a0100a 	mov	r1, #10
  100990:	e51b001c 	ldr	r0, [fp, #-28]	; 0xffffffe4
  100994:	eb00f5fc 	bl	13e18c <listen>
  100998:	e1a03000 	mov	r3, r0
  10099c:	e3730001 	cmn	r3, #1
  1009a0:	1a00000e 	bne	1009e0 <socketpair+0x264>
    {
        printf("Listen socket error: %s(errno: %d)\n", strerror(errno), errno);
  1009a4:	eb00e1cb 	bl	1390d8 <__errno_location>
  1009a8:	e1a03000 	mov	r3, r0
  1009ac:	e5933000 	ldr	r3, [r3]
  1009b0:	e1a00003 	mov	r0, r3
  1009b4:	eb00e1e9 	bl	139160 <strerror>
  1009b8:	e1a04000 	mov	r4, r0
  1009bc:	eb00e1c5 	bl	1390d8 <__errno_location>
  1009c0:	e1a03000 	mov	r3, r0
  1009c4:	e5933000 	ldr	r3, [r3]
  1009c8:	e1a02003 	mov	r2, r3
  1009cc:	e1a01004 	mov	r1, r4
  1009d0:	e305063c 	movw	r0, #22076	; 0x563c
  1009d4:	e3400014 	movt	r0, #20
  1009d8:	eb00f776 	bl	13e7b8 <printf>
        goto __exit;
  1009dc:	ea0000a3 	b	100c70 <socketpair+0x4f4>
    }

    /* client socket */
    if ((clientfd = socket(domain, type, protocol)) < 0)
  1009e0:	e51b2108 	ldr	r2, [fp, #-264]	; 0xfffffef8
  1009e4:	e51b1104 	ldr	r1, [fp, #-260]	; 0xfffffefc
  1009e8:	e51b0100 	ldr	r0, [fp, #-256]	; 0xffffff00
  1009ec:	eb00f613 	bl	13e240 <socket>
  1009f0:	e50b0010 	str	r0, [fp, #-16]
  1009f4:	e51b3010 	ldr	r3, [fp, #-16]
  1009f8:	e3530000 	cmp	r3, #0
  1009fc:	aa00000e 	bge	100a3c <socketpair+0x2c0>
    {
        printf("Create clientfd socket error: %s(errno: %d)\n", strerror(errno), errno);
  100a00:	eb00e1b4 	bl	1390d8 <__errno_location>
  100a04:	e1a03000 	mov	r3, r0
  100a08:	e5933000 	ldr	r3, [r3]
  100a0c:	e1a00003 	mov	r0, r3
  100a10:	eb00e1d2 	bl	139160 <strerror>
  100a14:	e1a04000 	mov	r4, r0
  100a18:	eb00e1ae 	bl	1390d8 <__errno_location>
  100a1c:	e1a03000 	mov	r3, r0
  100a20:	e5933000 	ldr	r3, [r3]
  100a24:	e1a02003 	mov	r2, r3
  100a28:	e1a01004 	mov	r1, r4
  100a2c:	e3050660 	movw	r0, #22112	; 0x5660
  100a30:	e3400014 	movt	r0, #20
  100a34:	eb00f75f 	bl	13e7b8 <printf>
        goto __exit;
  100a38:	ea00008c 	b	100c70 <socketpair+0x4f4>
    }

    /* non-blocking */
    fdopt = setnonblocking(clientfd);
  100a3c:	e51b0010 	ldr	r0, [fp, #-16]
  100a40:	ebffff31 	bl	10070c <setnonblocking>
  100a44:	e50b002c 	str	r0, [fp, #-44]	; 0xffffffd4
    /* client connect */
    memset(&caddr, 0, sizeof(caddr));
  100a48:	e24b3060 	sub	r3, fp, #96	; 0x60
  100a4c:	e3a02010 	mov	r2, #16
  100a50:	e3a01000 	mov	r1, #0
  100a54:	e1a00003 	mov	r0, r3
  100a58:	eb010285 	bl	141474 <memset>
    caddr.sin_family = domain;
  100a5c:	e51b3100 	ldr	r3, [fp, #-256]	; 0xffffff00
  100a60:	e6ff3073 	uxth	r3, r3
  100a64:	e14b36b0 	strh	r3, [fp, #-96]	; 0xffffffa0
    caddr.sin_port =htons(rt_port);
  100a68:	e51b3028 	ldr	r3, [fp, #-40]	; 0xffffffd8
  100a6c:	e6ff3073 	uxth	r3, r3
  100a70:	e1a00003 	mov	r0, r3
  100a74:	eb00f5bf 	bl	13e178 <htons>
  100a78:	e1a03000 	mov	r3, r0
  100a7c:	e14b35be 	strh	r3, [fp, #-94]	; 0xffffffa2
    caddr.sin_addr.s_addr=htonl(INADDR_ANY);
  100a80:	e3a00000 	mov	r0, #0
  100a84:	eb00f5b6 	bl	13e164 <htonl>
  100a88:	e1a03000 	mov	r3, r0
  100a8c:	e50b305c 	str	r3, [fp, #-92]	; 0xffffffa4
    connect(clientfd, (struct sockaddr*)&caddr, sizeof(caddr));
  100a90:	e24b3060 	sub	r3, fp, #96	; 0x60
  100a94:	e3a02010 	mov	r2, #16
  100a98:	e1a01003 	mov	r1, r3
  100a9c:	e51b0010 	ldr	r0, [fp, #-16]
  100aa0:	eb00f5a0 	bl	13e128 <connect>

    /* do select */
    FD_ZERO(&rfd);
  100aa4:	e24b30e8 	sub	r3, fp, #232	; 0xe8
  100aa8:	e50b3018 	str	r3, [fp, #-24]	; 0xffffffe8
  100aac:	e3a03020 	mov	r3, #32
  100ab0:	e50b3014 	str	r3, [fp, #-20]	; 0xffffffec
  100ab4:	ea000007 	b	100ad8 <socketpair+0x35c>
  100ab8:	e51b3018 	ldr	r3, [fp, #-24]	; 0xffffffe8
  100abc:	e2832004 	add	r2, r3, #4
  100ac0:	e50b2018 	str	r2, [fp, #-24]	; 0xffffffe8
  100ac4:	e3a02000 	mov	r2, #0
  100ac8:	e5832000 	str	r2, [r3]
  100acc:	e51b3014 	ldr	r3, [fp, #-20]	; 0xffffffec
  100ad0:	e2433001 	sub	r3, r3, #1
  100ad4:	e50b3014 	str	r3, [fp, #-20]	; 0xffffffec
  100ad8:	e51b3014 	ldr	r3, [fp, #-20]	; 0xffffffec
  100adc:	e3530000 	cmp	r3, #0
  100ae0:	1afffff4 	bne	100ab8 <socketpair+0x33c>
    FD_SET(listenfd, &rfd);
  100ae4:	e51b301c 	ldr	r3, [fp, #-28]	; 0xffffffe4
  100ae8:	e1a022a3 	lsr	r2, r3, #5
  100aec:	e1a03102 	lsl	r3, r2, #2
  100af0:	e24b100c 	sub	r1, fp, #12
  100af4:	e0813003 	add	r3, r1, r3
  100af8:	e51310dc 	ldr	r1, [r3, #-220]	; 0xffffff24
  100afc:	e51b301c 	ldr	r3, [fp, #-28]	; 0xffffffe4
  100b00:	e203301f 	and	r3, r3, #31
  100b04:	e3a00001 	mov	r0, #1
  100b08:	e1a03310 	lsl	r3, r0, r3
  100b0c:	e1811003 	orr	r1, r1, r3
  100b10:	e1a03102 	lsl	r3, r2, #2
  100b14:	e24b200c 	sub	r2, fp, #12
  100b18:	e0823003 	add	r3, r2, r3
  100b1c:	e50310dc 	str	r1, [r3, #-220]	; 0xffffff24
    FD_SET(clientfd, &rfd);
  100b20:	e51b3010 	ldr	r3, [fp, #-16]
  100b24:	e1a022a3 	lsr	r2, r3, #5
  100b28:	e1a03102 	lsl	r3, r2, #2
  100b2c:	e24b100c 	sub	r1, fp, #12
  100b30:	e0813003 	add	r3, r1, r3
  100b34:	e51310dc 	ldr	r1, [r3, #-220]	; 0xffffff24
  100b38:	e51b3010 	ldr	r3, [fp, #-16]
  100b3c:	e203301f 	and	r3, r3, #31
  100b40:	e3a00001 	mov	r0, #1
  100b44:	e1a03310 	lsl	r3, r0, r3
  100b48:	e1811003 	orr	r1, r1, r3
  100b4c:	e1a03102 	lsl	r3, r2, #2
  100b50:	e24b200c 	sub	r2, fp, #12
  100b54:	e0823003 	add	r3, r2, r3
  100b58:	e50310dc 	str	r1, [r3, #-220]	; 0xffffff24
    maxfdp = listenfd > clientfd ? listenfd+1 : clientfd+1;
  100b5c:	e51b201c 	ldr	r2, [fp, #-28]	; 0xffffffe4
  100b60:	e51b3010 	ldr	r3, [fp, #-16]
  100b64:	e1520003 	cmp	r2, r3
  100b68:	da000002 	ble	100b78 <socketpair+0x3fc>
  100b6c:	e51b301c 	ldr	r3, [fp, #-28]	; 0xffffffe4
  100b70:	e2833001 	add	r3, r3, #1
  100b74:	ea000001 	b	100b80 <socketpair+0x404>
  100b78:	e51b3010 	ldr	r3, [fp, #-16]
  100b7c:	e2833001 	add	r3, r3, #1
  100b80:	e50b3024 	str	r3, [fp, #-36]	; 0xffffffdc
    rst = select(maxfdp, &rfd, NULL, NULL, &timeout);
  100b84:	e24b10e8 	sub	r1, fp, #232	; 0xe8
  100b88:	e24b30fc 	sub	r3, fp, #252	; 0xfc
  100b8c:	e58d3000 	str	r3, [sp]
  100b90:	e3a03000 	mov	r3, #0
  100b94:	e3a02000 	mov	r2, #0
  100b98:	e51b0024 	ldr	r0, [fp, #-36]	; 0xffffffdc
  100b9c:	eb00f60c 	bl	13e3d4 <select>
  100ba0:	e50b0030 	str	r0, [fp, #-48]	; 0xffffffd0
    switch(rst)
  100ba4:	e51b3030 	ldr	r3, [fp, #-48]	; 0xffffffd0
  100ba8:	e3730001 	cmn	r3, #1
  100bac:	0a000002 	beq	100bbc <socketpair+0x440>
  100bb0:	e3530000 	cmp	r3, #0
  100bb4:	0a000004 	beq	100bcc <socketpair+0x450>
  100bb8:	ea000007 	b	100bdc <socketpair+0x460>
    {
    case -1:
        perror("select error");
  100bbc:	e3050690 	movw	r0, #22160	; 0x5690
  100bc0:	e3400014 	movt	r0, #20
  100bc4:	eb00f6b2 	bl	13e694 <perror>
        goto __exit;
  100bc8:	ea000028 	b	100c70 <socketpair+0x4f4>
        break;
    case 0:
        perror("continue");
  100bcc:	e30506a0 	movw	r0, #22176	; 0x56a0
  100bd0:	e3400014 	movt	r0, #20
  100bd4:	eb00f6ae 	bl	13e694 <perror>
        break;
  100bd8:	ea000024 	b	100c70 <socketpair+0x4f4>
    default:
        if (FD_ISSET(listenfd, &rfd))
  100bdc:	e51b301c 	ldr	r3, [fp, #-28]	; 0xffffffe4
  100be0:	e1a032a3 	lsr	r3, r3, #5
  100be4:	e1a03103 	lsl	r3, r3, #2
  100be8:	e24b200c 	sub	r2, fp, #12
  100bec:	e0823003 	add	r3, r2, r3
  100bf0:	e51320dc 	ldr	r2, [r3, #-220]	; 0xffffff24
  100bf4:	e51b301c 	ldr	r3, [fp, #-28]	; 0xffffffe4
  100bf8:	e203301f 	and	r3, r3, #31
  100bfc:	e1a03332 	lsr	r3, r2, r3
  100c00:	e2033001 	and	r3, r3, #1
  100c04:	e3530000 	cmp	r3, #0
  100c08:	0a000017 	beq	100c6c <socketpair+0x4f0>
        {
            if ((acceptfd = accept(listenfd, (struct sockaddr*)&caddr, &len)) > 0)
  100c0c:	e24b2064 	sub	r2, fp, #100	; 0x64
  100c10:	e24b3060 	sub	r3, fp, #96	; 0x60
  100c14:	e1a01003 	mov	r1, r3
  100c18:	e51b001c 	ldr	r0, [fp, #-28]	; 0xffffffe4
  100c1c:	eb00f51c 	bl	13e094 <accept>
  100c20:	e50b0020 	str	r0, [fp, #-32]	; 0xffffffe0
  100c24:	e51b3020 	ldr	r3, [fp, #-32]	; 0xffffffe0
  100c28:	e3530000 	cmp	r3, #0
  100c2c:	da00000c 	ble	100c64 <socketpair+0x4e8>
            {
                close(listenfd);
  100c30:	e51b001c 	ldr	r0, [fp, #-28]	; 0xffffffe4
  100c34:	eb0108cf 	bl	142f78 <close>
                /* set old optional back */
                fcntl(clientfd, F_SETFL, fdopt);
  100c38:	e51b202c 	ldr	r2, [fp, #-44]	; 0xffffffd4
  100c3c:	e3a01004 	mov	r1, #4
  100c40:	e51b0010 	ldr	r0, [fp, #-16]
  100c44:	eb00e172 	bl	139214 <fcntl>
                sv[0] = clientfd;
  100c48:	e51b310c 	ldr	r3, [fp, #-268]	; 0xfffffef4
  100c4c:	e51b2010 	ldr	r2, [fp, #-16]
  100c50:	e5832000 	str	r2, [r3]
                sv[1] = acceptfd;
  100c54:	e51b310c 	ldr	r3, [fp, #-268]	; 0xfffffef4
  100c58:	e2833004 	add	r3, r3, #4
  100c5c:	e51b2020 	ldr	r2, [fp, #-32]	; 0xffffffe0
  100c60:	e5832000 	str	r2, [r3]
            }

            return 0;
  100c64:	e3a03000 	mov	r3, #0
  100c68:	ea00000b 	b	100c9c <socketpair+0x520>
        }
    }

__exit:
  100c6c:	e320f000 	nop	{0}
    if (listenfd >= 0) close(listenfd);
  100c70:	e51b301c 	ldr	r3, [fp, #-28]	; 0xffffffe4
  100c74:	e3530000 	cmp	r3, #0
  100c78:	ba000001 	blt	100c84 <socketpair+0x508>
  100c7c:	e51b001c 	ldr	r0, [fp, #-28]	; 0xffffffe4
  100c80:	eb0108bc 	bl	142f78 <close>
    if (clientfd >= 0) close(clientfd);
  100c84:	e51b3010 	ldr	r3, [fp, #-16]
  100c88:	e3530000 	cmp	r3, #0
  100c8c:	ba000001 	blt	100c98 <socketpair+0x51c>
  100c90:	e51b0010 	ldr	r0, [fp, #-16]
  100c94:	eb0108b7 	bl	142f78 <close>

    return -1;
  100c98:	e3e03000 	mvn	r3, #0
}
  100c9c:	e1a00003 	mov	r0, r3
  100ca0:	e24bd008 	sub	sp, fp, #8
  100ca4:	e8bd8810 	pop	{r4, fp, pc}

00100ca8 <rt_mutex_create>:
            return RT_EIO;\
        }\
    } while (0)

rt_mutex_t rt_mutex_create(const char *name, rt_uint8_t flag)
{
  100ca8:	e92d4800 	push	{fp, lr}
  100cac:	e28db004 	add	fp, sp, #4
  100cb0:	e24dd010 	sub	sp, sp, #16
  100cb4:	e50b0010 	str	r0, [fp, #-16]
  100cb8:	e1a03001 	mov	r3, r1
  100cbc:	e54b3011 	strb	r3, [fp, #-17]	; 0xffffffef
    RT_USER_IPC_CREATE(RT_Object_Class_Mutex, _NRSYS_mutex_create, name, flag);
  100cc0:	e3a00008 	mov	r0, #8
  100cc4:	eb00f221 	bl	13d550 <malloc>
  100cc8:	e1a03000 	mov	r3, r0
  100ccc:	e50b3008 	str	r3, [fp, #-8]
  100cd0:	e51b3008 	ldr	r3, [fp, #-8]
  100cd4:	e3530000 	cmp	r3, #0
  100cd8:	1a000001 	bne	100ce4 <rt_mutex_create+0x3c>
  100cdc:	e3a03000 	mov	r3, #0
  100ce0:	ea000015 	b	100d3c <rt_mutex_create+0x94>
  100ce4:	e55b3011 	ldrb	r3, [fp, #-17]	; 0xffffffef
  100ce8:	e1a02003 	mov	r2, r3
  100cec:	e51b1010 	ldr	r1, [fp, #-16]
  100cf0:	e3a00016 	mov	r0, #22
  100cf4:	eb00ee58 	bl	13c65c <syscall>
  100cf8:	e1a03000 	mov	r3, r0
  100cfc:	e1a02003 	mov	r2, r3
  100d00:	e51b3008 	ldr	r3, [fp, #-8]
  100d04:	e5832004 	str	r2, [r3, #4]
  100d08:	e51b3008 	ldr	r3, [fp, #-8]
  100d0c:	e5933004 	ldr	r3, [r3, #4]
  100d10:	e3530000 	cmp	r3, #0
  100d14:	0a000003 	beq	100d28 <rt_mutex_create+0x80>
  100d18:	e51b3008 	ldr	r3, [fp, #-8]
  100d1c:	e3a02003 	mov	r2, #3
  100d20:	e5832000 	str	r2, [r3]
  100d24:	ea000003 	b	100d38 <rt_mutex_create+0x90>
  100d28:	e51b0008 	ldr	r0, [fp, #-8]
  100d2c:	eb00f3c3 	bl	13dc40 <free>
  100d30:	e3a03000 	mov	r3, #0
  100d34:	e50b3008 	str	r3, [fp, #-8]
  100d38:	e51b3008 	ldr	r3, [fp, #-8]
}
  100d3c:	e1a00003 	mov	r0, r3
  100d40:	e24bd004 	sub	sp, fp, #4
  100d44:	e8bd8800 	pop	{fp, pc}

00100d48 <rt_mutex_init>:

rt_err_t rt_mutex_init(rt_mutex_t mutex, const char *name, rt_uint8_t flag)
{
  100d48:	e92d4800 	push	{fp, lr}
  100d4c:	e28db004 	add	fp, sp, #4
  100d50:	e24dd010 	sub	sp, sp, #16
  100d54:	e50b0008 	str	r0, [fp, #-8]
  100d58:	e50b100c 	str	r1, [fp, #-12]
  100d5c:	e1a03002 	mov	r3, r2
  100d60:	e54b300d 	strb	r3, [fp, #-13]
    RT_USER_IPC_INIT(mutex, RT_Object_Class_Mutex, _NRSYS_mutex_create, name, flag);
  100d64:	e51b3008 	ldr	r3, [fp, #-8]
  100d68:	e3530000 	cmp	r3, #0
  100d6c:	1a000001 	bne	100d78 <rt_mutex_init+0x30>
  100d70:	e3a03008 	mov	r3, #8
  100d74:	ea000012 	b	100dc4 <rt_mutex_init+0x7c>
  100d78:	e55b300d 	ldrb	r3, [fp, #-13]
  100d7c:	e1a02003 	mov	r2, r3
  100d80:	e51b100c 	ldr	r1, [fp, #-12]
  100d84:	e3a00016 	mov	r0, #22
  100d88:	eb00ee33 	bl	13c65c <syscall>
  100d8c:	e1a03000 	mov	r3, r0
  100d90:	e1a02003 	mov	r2, r3
  100d94:	e51b3008 	ldr	r3, [fp, #-8]
  100d98:	e5832004 	str	r2, [r3, #4]
  100d9c:	e51b3008 	ldr	r3, [fp, #-8]
  100da0:	e5933004 	ldr	r3, [r3, #4]
  100da4:	e3530000 	cmp	r3, #0
  100da8:	0a000004 	beq	100dc0 <rt_mutex_init+0x78>
  100dac:	e51b3008 	ldr	r3, [fp, #-8]
  100db0:	e3a02003 	mov	r2, #3
  100db4:	e5832000 	str	r2, [r3]
  100db8:	e3a03000 	mov	r3, #0
  100dbc:	ea000000 	b	100dc4 <rt_mutex_init+0x7c>
  100dc0:	e3a03001 	mov	r3, #1
}
  100dc4:	e1a00003 	mov	r0, r3
  100dc8:	e24bd004 	sub	sp, fp, #4
  100dcc:	e8bd8800 	pop	{fp, pc}

00100dd0 <rt_mutex_delete>:

rt_err_t rt_mutex_delete(rt_mutex_t mutex)
{
  100dd0:	e92d4800 	push	{fp, lr}
  100dd4:	e28db004 	add	fp, sp, #4
  100dd8:	e24dd010 	sub	sp, sp, #16
  100ddc:	e50b0010 	str	r0, [fp, #-16]
    RT_USER_IPC_DELETE(mutex, RT_Object_Class_Mutex, _NRSYS_mutex_delete);
  100de0:	e51b3010 	ldr	r3, [fp, #-16]
  100de4:	e3530000 	cmp	r3, #0
  100de8:	0a000003 	beq	100dfc <rt_mutex_delete+0x2c>
  100dec:	e51b3010 	ldr	r3, [fp, #-16]
  100df0:	e5933004 	ldr	r3, [r3, #4]
  100df4:	e3530000 	cmp	r3, #0
  100df8:	1a000001 	bne	100e04 <rt_mutex_delete+0x34>
  100dfc:	e3a03008 	mov	r3, #8
  100e00:	ea000013 	b	100e54 <rt_mutex_delete+0x84>
  100e04:	e51b3010 	ldr	r3, [fp, #-16]
  100e08:	e5933000 	ldr	r3, [r3]
  100e0c:	e3530003 	cmp	r3, #3
  100e10:	0a000001 	beq	100e1c <rt_mutex_delete+0x4c>
  100e14:	e3a03008 	mov	r3, #8
  100e18:	ea00000d 	b	100e54 <rt_mutex_delete+0x84>
  100e1c:	e51b3010 	ldr	r3, [fp, #-16]
  100e20:	e5933004 	ldr	r3, [r3, #4]
  100e24:	e1a01003 	mov	r1, r3
  100e28:	e3a00017 	mov	r0, #23
  100e2c:	eb00ee0a 	bl	13c65c <syscall>
  100e30:	e50b0008 	str	r0, [fp, #-8]
  100e34:	e51b3008 	ldr	r3, [fp, #-8]
  100e38:	e3530000 	cmp	r3, #0
  100e3c:	0a000001 	beq	100e48 <rt_mutex_delete+0x78>
  100e40:	e51b3008 	ldr	r3, [fp, #-8]
  100e44:	ea000002 	b	100e54 <rt_mutex_delete+0x84>
  100e48:	e51b0010 	ldr	r0, [fp, #-16]
  100e4c:	eb00f37b 	bl	13dc40 <free>
  100e50:	e3a03000 	mov	r3, #0
}
  100e54:	e1a00003 	mov	r0, r3
  100e58:	e24bd004 	sub	sp, fp, #4
  100e5c:	e8bd8800 	pop	{fp, pc}

00100e60 <rt_mutex_detach>:

rt_err_t rt_mutex_detach(rt_mutex_t mutex)
{
  100e60:	e92d4800 	push	{fp, lr}
  100e64:	e28db004 	add	fp, sp, #4
  100e68:	e24dd010 	sub	sp, sp, #16
  100e6c:	e50b0010 	str	r0, [fp, #-16]
    RT_USER_IPC_DETACH(mutex, RT_Object_Class_Mutex, _NRSYS_mutex_delete);
  100e70:	e51b3010 	ldr	r3, [fp, #-16]
  100e74:	e3530000 	cmp	r3, #0
  100e78:	0a000003 	beq	100e8c <rt_mutex_detach+0x2c>
  100e7c:	e51b3010 	ldr	r3, [fp, #-16]
  100e80:	e5933004 	ldr	r3, [r3, #4]
  100e84:	e3530000 	cmp	r3, #0
  100e88:	1a000001 	bne	100e94 <rt_mutex_detach+0x34>
  100e8c:	e3a03008 	mov	r3, #8
  100e90:	ea000017 	b	100ef4 <rt_mutex_detach+0x94>
  100e94:	e51b3010 	ldr	r3, [fp, #-16]
  100e98:	e5933000 	ldr	r3, [r3]
  100e9c:	e3530003 	cmp	r3, #3
  100ea0:	0a000001 	beq	100eac <rt_mutex_detach+0x4c>
  100ea4:	e3a03008 	mov	r3, #8
  100ea8:	ea000011 	b	100ef4 <rt_mutex_detach+0x94>
  100eac:	e51b3010 	ldr	r3, [fp, #-16]
  100eb0:	e5933004 	ldr	r3, [r3, #4]
  100eb4:	e1a01003 	mov	r1, r3
  100eb8:	e3a00017 	mov	r0, #23
  100ebc:	eb00ede6 	bl	13c65c <syscall>
  100ec0:	e50b0008 	str	r0, [fp, #-8]
  100ec4:	e51b3008 	ldr	r3, [fp, #-8]
  100ec8:	e3530000 	cmp	r3, #0
  100ecc:	0a000001 	beq	100ed8 <rt_mutex_detach+0x78>
  100ed0:	e51b3008 	ldr	r3, [fp, #-8]
  100ed4:	ea000006 	b	100ef4 <rt_mutex_detach+0x94>
  100ed8:	e51b3010 	ldr	r3, [fp, #-16]
  100edc:	e3a02000 	mov	r2, #0
  100ee0:	e5832000 	str	r2, [r3]
  100ee4:	e51b3010 	ldr	r3, [fp, #-16]
  100ee8:	e3a02000 	mov	r2, #0
  100eec:	e5832004 	str	r2, [r3, #4]
  100ef0:	e3a03000 	mov	r3, #0
}
  100ef4:	e1a00003 	mov	r0, r3
  100ef8:	e24bd004 	sub	sp, fp, #4
  100efc:	e8bd8800 	pop	{fp, pc}

00100f00 <rt_mutex_take>:

rt_err_t rt_mutex_take(rt_mutex_t mutex, rt_int32_t time)
{
  100f00:	e92d4800 	push	{fp, lr}
  100f04:	e28db004 	add	fp, sp, #4
  100f08:	e24dd008 	sub	sp, sp, #8
  100f0c:	e50b0008 	str	r0, [fp, #-8]
  100f10:	e50b100c 	str	r1, [fp, #-12]
    RT_USER_IPC_CHECK(mutex, RT_Object_Class_Mutex);
  100f14:	e51b3008 	ldr	r3, [fp, #-8]
  100f18:	e3530000 	cmp	r3, #0
  100f1c:	0a000003 	beq	100f30 <rt_mutex_take+0x30>
  100f20:	e51b3008 	ldr	r3, [fp, #-8]
  100f24:	e5933004 	ldr	r3, [r3, #4]
  100f28:	e3530000 	cmp	r3, #0
  100f2c:	1a000001 	bne	100f38 <rt_mutex_take+0x38>
  100f30:	e3a03008 	mov	r3, #8
  100f34:	ea00000c 	b	100f6c <rt_mutex_take+0x6c>
  100f38:	e51b3008 	ldr	r3, [fp, #-8]
  100f3c:	e5933000 	ldr	r3, [r3]
  100f40:	e3530003 	cmp	r3, #3
  100f44:	0a000001 	beq	100f50 <rt_mutex_take+0x50>
  100f48:	e3a03008 	mov	r3, #8
  100f4c:	ea000006 	b	100f6c <rt_mutex_take+0x6c>
    return syscall(_NRSYS_mutex_take, mutex->data, time);
  100f50:	e51b3008 	ldr	r3, [fp, #-8]
  100f54:	e5933004 	ldr	r3, [r3, #4]
  100f58:	e51b200c 	ldr	r2, [fp, #-12]
  100f5c:	e1a01003 	mov	r1, r3
  100f60:	e3a00018 	mov	r0, #24
  100f64:	eb00edbc 	bl	13c65c <syscall>
  100f68:	e1a03000 	mov	r3, r0
}
  100f6c:	e1a00003 	mov	r0, r3
  100f70:	e24bd004 	sub	sp, fp, #4
  100f74:	e8bd8800 	pop	{fp, pc}

00100f78 <rt_mutex_release>:

rt_err_t rt_mutex_release(rt_mutex_t mutex)
{
  100f78:	e92d4800 	push	{fp, lr}
  100f7c:	e28db004 	add	fp, sp, #4
  100f80:	e24dd008 	sub	sp, sp, #8
  100f84:	e50b0008 	str	r0, [fp, #-8]
    RT_USER_IPC_CHECK(mutex, RT_Object_Class_Mutex);
  100f88:	e51b3008 	ldr	r3, [fp, #-8]
  100f8c:	e3530000 	cmp	r3, #0
  100f90:	0a000003 	beq	100fa4 <rt_mutex_release+0x2c>
  100f94:	e51b3008 	ldr	r3, [fp, #-8]
  100f98:	e5933004 	ldr	r3, [r3, #4]
  100f9c:	e3530000 	cmp	r3, #0
  100fa0:	1a000001 	bne	100fac <rt_mutex_release+0x34>
  100fa4:	e3a03008 	mov	r3, #8
  100fa8:	ea00000b 	b	100fdc <rt_mutex_release+0x64>
  100fac:	e51b3008 	ldr	r3, [fp, #-8]
  100fb0:	e5933000 	ldr	r3, [r3]
  100fb4:	e3530003 	cmp	r3, #3
  100fb8:	0a000001 	beq	100fc4 <rt_mutex_release+0x4c>
  100fbc:	e3a03008 	mov	r3, #8
  100fc0:	ea000005 	b	100fdc <rt_mutex_release+0x64>
    return syscall(_NRSYS_mutex_release, mutex->data);
  100fc4:	e51b3008 	ldr	r3, [fp, #-8]
  100fc8:	e5933004 	ldr	r3, [r3, #4]
  100fcc:	e1a01003 	mov	r1, r3
  100fd0:	e3a00019 	mov	r0, #25
  100fd4:	eb00eda0 	bl	13c65c <syscall>
  100fd8:	e1a03000 	mov	r3, r0
}
  100fdc:	e1a00003 	mov	r0, r3
  100fe0:	e24bd004 	sub	sp, fp, #4
  100fe4:	e8bd8800 	pop	{fp, pc}

00100fe8 <rt_sem_create>:

rt_sem_t rt_sem_create(const char *name, rt_uint32_t value, rt_uint8_t flag)
{
  100fe8:	e92d4800 	push	{fp, lr}
  100fec:	e28db004 	add	fp, sp, #4
  100ff0:	e24dd018 	sub	sp, sp, #24
  100ff4:	e50b0010 	str	r0, [fp, #-16]
  100ff8:	e50b1014 	str	r1, [fp, #-20]	; 0xffffffec
  100ffc:	e1a03002 	mov	r3, r2
  101000:	e54b3015 	strb	r3, [fp, #-21]	; 0xffffffeb
    RT_USER_IPC_CREATE(RT_Object_Class_Semaphore, _NRSYS_sem_create, name, value, flag);
  101004:	e3a00008 	mov	r0, #8
  101008:	eb00f150 	bl	13d550 <malloc>
  10100c:	e1a03000 	mov	r3, r0
  101010:	e50b3008 	str	r3, [fp, #-8]
  101014:	e51b3008 	ldr	r3, [fp, #-8]
  101018:	e3530000 	cmp	r3, #0
  10101c:	1a000001 	bne	101028 <rt_sem_create+0x40>
  101020:	e3a03000 	mov	r3, #0
  101024:	ea000015 	b	101080 <rt_sem_create+0x98>
  101028:	e55b3015 	ldrb	r3, [fp, #-21]	; 0xffffffeb
  10102c:	e51b2014 	ldr	r2, [fp, #-20]	; 0xffffffec
  101030:	e51b1010 	ldr	r1, [fp, #-16]
  101034:	e3a00012 	mov	r0, #18
  101038:	eb00ed87 	bl	13c65c <syscall>
  10103c:	e1a03000 	mov	r3, r0
  101040:	e1a02003 	mov	r2, r3
  101044:	e51b3008 	ldr	r3, [fp, #-8]
  101048:	e5832004 	str	r2, [r3, #4]
  10104c:	e51b3008 	ldr	r3, [fp, #-8]
  101050:	e5933004 	ldr	r3, [r3, #4]
  101054:	e3530000 	cmp	r3, #0
  101058:	0a000003 	beq	10106c <rt_sem_create+0x84>
  10105c:	e51b3008 	ldr	r3, [fp, #-8]
  101060:	e3a02002 	mov	r2, #2
  101064:	e5832000 	str	r2, [r3]
  101068:	ea000003 	b	10107c <rt_sem_create+0x94>
  10106c:	e51b0008 	ldr	r0, [fp, #-8]
  101070:	eb00f2f2 	bl	13dc40 <free>
  101074:	e3a03000 	mov	r3, #0
  101078:	e50b3008 	str	r3, [fp, #-8]
  10107c:	e51b3008 	ldr	r3, [fp, #-8]
}
  101080:	e1a00003 	mov	r0, r3
  101084:	e24bd004 	sub	sp, fp, #4
  101088:	e8bd8800 	pop	{fp, pc}

0010108c <rt_sem_init>:

rt_err_t rt_sem_init(rt_sem_t sem,
                     const char *name,
                     rt_uint32_t value,
                     rt_uint8_t  flag)
{
  10108c:	e92d4800 	push	{fp, lr}
  101090:	e28db004 	add	fp, sp, #4
  101094:	e24dd010 	sub	sp, sp, #16
  101098:	e50b0008 	str	r0, [fp, #-8]
  10109c:	e50b100c 	str	r1, [fp, #-12]
  1010a0:	e50b2010 	str	r2, [fp, #-16]
  1010a4:	e54b3011 	strb	r3, [fp, #-17]	; 0xffffffef
    RT_USER_IPC_INIT(sem, RT_Object_Class_Semaphore, _NRSYS_sem_create, name, value, flag);
  1010a8:	e51b3008 	ldr	r3, [fp, #-8]
  1010ac:	e3530000 	cmp	r3, #0
  1010b0:	1a000001 	bne	1010bc <rt_sem_init+0x30>
  1010b4:	e3a03008 	mov	r3, #8
  1010b8:	ea000012 	b	101108 <rt_sem_init+0x7c>
  1010bc:	e55b3011 	ldrb	r3, [fp, #-17]	; 0xffffffef
  1010c0:	e51b2010 	ldr	r2, [fp, #-16]
  1010c4:	e51b100c 	ldr	r1, [fp, #-12]
  1010c8:	e3a00012 	mov	r0, #18
  1010cc:	eb00ed62 	bl	13c65c <syscall>
  1010d0:	e1a03000 	mov	r3, r0
  1010d4:	e1a02003 	mov	r2, r3
  1010d8:	e51b3008 	ldr	r3, [fp, #-8]
  1010dc:	e5832004 	str	r2, [r3, #4]
  1010e0:	e51b3008 	ldr	r3, [fp, #-8]
  1010e4:	e5933004 	ldr	r3, [r3, #4]
  1010e8:	e3530000 	cmp	r3, #0
  1010ec:	0a000004 	beq	101104 <rt_sem_init+0x78>
  1010f0:	e51b3008 	ldr	r3, [fp, #-8]
  1010f4:	e3a02002 	mov	r2, #2
  1010f8:	e5832000 	str	r2, [r3]
  1010fc:	e3a03000 	mov	r3, #0
  101100:	ea000000 	b	101108 <rt_sem_init+0x7c>
  101104:	e3a03001 	mov	r3, #1
}
  101108:	e1a00003 	mov	r0, r3
  10110c:	e24bd004 	sub	sp, fp, #4
  101110:	e8bd8800 	pop	{fp, pc}

00101114 <rt_sem_delete>:

rt_err_t rt_sem_delete(rt_sem_t sem)
{
  101114:	e92d4800 	push	{fp, lr}
  101118:	e28db004 	add	fp, sp, #4
  10111c:	e24dd010 	sub	sp, sp, #16
  101120:	e50b0010 	str	r0, [fp, #-16]
    RT_USER_IPC_DELETE(sem, RT_Object_Class_Semaphore, _NRSYS_sem_delete);
  101124:	e51b3010 	ldr	r3, [fp, #-16]
  101128:	e3530000 	cmp	r3, #0
  10112c:	0a000003 	beq	101140 <rt_sem_delete+0x2c>
  101130:	e51b3010 	ldr	r3, [fp, #-16]
  101134:	e5933004 	ldr	r3, [r3, #4]
  101138:	e3530000 	cmp	r3, #0
  10113c:	1a000001 	bne	101148 <rt_sem_delete+0x34>
  101140:	e3a03008 	mov	r3, #8
  101144:	ea000013 	b	101198 <rt_sem_delete+0x84>
  101148:	e51b3010 	ldr	r3, [fp, #-16]
  10114c:	e5933000 	ldr	r3, [r3]
  101150:	e3530002 	cmp	r3, #2
  101154:	0a000001 	beq	101160 <rt_sem_delete+0x4c>
  101158:	e3a03008 	mov	r3, #8
  10115c:	ea00000d 	b	101198 <rt_sem_delete+0x84>
  101160:	e51b3010 	ldr	r3, [fp, #-16]
  101164:	e5933004 	ldr	r3, [r3, #4]
  101168:	e1a01003 	mov	r1, r3
  10116c:	e3a00013 	mov	r0, #19
  101170:	eb00ed39 	bl	13c65c <syscall>
  101174:	e50b0008 	str	r0, [fp, #-8]
  101178:	e51b3008 	ldr	r3, [fp, #-8]
  10117c:	e3530000 	cmp	r3, #0
  101180:	0a000001 	beq	10118c <rt_sem_delete+0x78>
  101184:	e51b3008 	ldr	r3, [fp, #-8]
  101188:	ea000002 	b	101198 <rt_sem_delete+0x84>
  10118c:	e51b0010 	ldr	r0, [fp, #-16]
  101190:	eb00f2aa 	bl	13dc40 <free>
  101194:	e3a03000 	mov	r3, #0
}
  101198:	e1a00003 	mov	r0, r3
  10119c:	e24bd004 	sub	sp, fp, #4
  1011a0:	e8bd8800 	pop	{fp, pc}

001011a4 <rt_sem_detach>:

rt_err_t rt_sem_detach(rt_sem_t sem)
{
  1011a4:	e92d4800 	push	{fp, lr}
  1011a8:	e28db004 	add	fp, sp, #4
  1011ac:	e24dd010 	sub	sp, sp, #16
  1011b0:	e50b0010 	str	r0, [fp, #-16]
    RT_USER_IPC_DETACH(sem, RT_Object_Class_Semaphore, _NRSYS_sem_delete);
  1011b4:	e51b3010 	ldr	r3, [fp, #-16]
  1011b8:	e3530000 	cmp	r3, #0
  1011bc:	0a000003 	beq	1011d0 <rt_sem_detach+0x2c>
  1011c0:	e51b3010 	ldr	r3, [fp, #-16]
  1011c4:	e5933004 	ldr	r3, [r3, #4]
  1011c8:	e3530000 	cmp	r3, #0
  1011cc:	1a000001 	bne	1011d8 <rt_sem_detach+0x34>
  1011d0:	e3a03008 	mov	r3, #8
  1011d4:	ea000017 	b	101238 <rt_sem_detach+0x94>
  1011d8:	e51b3010 	ldr	r3, [fp, #-16]
  1011dc:	e5933000 	ldr	r3, [r3]
  1011e0:	e3530002 	cmp	r3, #2
  1011e4:	0a000001 	beq	1011f0 <rt_sem_detach+0x4c>
  1011e8:	e3a03008 	mov	r3, #8
  1011ec:	ea000011 	b	101238 <rt_sem_detach+0x94>
  1011f0:	e51b3010 	ldr	r3, [fp, #-16]
  1011f4:	e5933004 	ldr	r3, [r3, #4]
  1011f8:	e1a01003 	mov	r1, r3
  1011fc:	e3a00013 	mov	r0, #19
  101200:	eb00ed15 	bl	13c65c <syscall>
  101204:	e50b0008 	str	r0, [fp, #-8]
  101208:	e51b3008 	ldr	r3, [fp, #-8]
  10120c:	e3530000 	cmp	r3, #0
  101210:	0a000001 	beq	10121c <rt_sem_detach+0x78>
  101214:	e51b3008 	ldr	r3, [fp, #-8]
  101218:	ea000006 	b	101238 <rt_sem_detach+0x94>
  10121c:	e51b3010 	ldr	r3, [fp, #-16]
  101220:	e3a02000 	mov	r2, #0
  101224:	e5832000 	str	r2, [r3]
  101228:	e51b3010 	ldr	r3, [fp, #-16]
  10122c:	e3a02000 	mov	r2, #0
  101230:	e5832004 	str	r2, [r3, #4]
  101234:	e3a03000 	mov	r3, #0
}
  101238:	e1a00003 	mov	r0, r3
  10123c:	e24bd004 	sub	sp, fp, #4
  101240:	e8bd8800 	pop	{fp, pc}

00101244 <rt_sem_release>:

rt_err_t rt_sem_release(rt_sem_t sem)
{
  101244:	e92d4800 	push	{fp, lr}
  101248:	e28db004 	add	fp, sp, #4
  10124c:	e24dd008 	sub	sp, sp, #8
  101250:	e50b0008 	str	r0, [fp, #-8]
    RT_USER_IPC_CHECK(sem, RT_Object_Class_Semaphore);
  101254:	e51b3008 	ldr	r3, [fp, #-8]
  101258:	e3530000 	cmp	r3, #0
  10125c:	0a000003 	beq	101270 <rt_sem_release+0x2c>
  101260:	e51b3008 	ldr	r3, [fp, #-8]
  101264:	e5933004 	ldr	r3, [r3, #4]
  101268:	e3530000 	cmp	r3, #0
  10126c:	1a000001 	bne	101278 <rt_sem_release+0x34>
  101270:	e3a03008 	mov	r3, #8
  101274:	ea00000b 	b	1012a8 <rt_sem_release+0x64>
  101278:	e51b3008 	ldr	r3, [fp, #-8]
  10127c:	e5933000 	ldr	r3, [r3]
  101280:	e3530002 	cmp	r3, #2
  101284:	0a000001 	beq	101290 <rt_sem_release+0x4c>
  101288:	e3a03008 	mov	r3, #8
  10128c:	ea000005 	b	1012a8 <rt_sem_release+0x64>
    return syscall(_NRSYS_sem_release, sem->data);
  101290:	e51b3008 	ldr	r3, [fp, #-8]
  101294:	e5933004 	ldr	r3, [r3, #4]
  101298:	e1a01003 	mov	r1, r3
  10129c:	e3a00015 	mov	r0, #21
  1012a0:	eb00eced 	bl	13c65c <syscall>
  1012a4:	e1a03000 	mov	r3, r0
}
  1012a8:	e1a00003 	mov	r0, r3
  1012ac:	e24bd004 	sub	sp, fp, #4
  1012b0:	e8bd8800 	pop	{fp, pc}

001012b4 <rt_sem_take>:

rt_err_t rt_sem_take(rt_sem_t sem, rt_int32_t time)
{
  1012b4:	e92d4800 	push	{fp, lr}
  1012b8:	e28db004 	add	fp, sp, #4
  1012bc:	e24dd008 	sub	sp, sp, #8
  1012c0:	e50b0008 	str	r0, [fp, #-8]
  1012c4:	e50b100c 	str	r1, [fp, #-12]
    RT_USER_IPC_CHECK(sem, RT_Object_Class_Semaphore);
  1012c8:	e51b3008 	ldr	r3, [fp, #-8]
  1012cc:	e3530000 	cmp	r3, #0
  1012d0:	0a000003 	beq	1012e4 <rt_sem_take+0x30>
  1012d4:	e51b3008 	ldr	r3, [fp, #-8]
  1012d8:	e5933004 	ldr	r3, [r3, #4]
  1012dc:	e3530000 	cmp	r3, #0
  1012e0:	1a000001 	bne	1012ec <rt_sem_take+0x38>
  1012e4:	e3a03008 	mov	r3, #8
  1012e8:	ea00000c 	b	101320 <rt_sem_take+0x6c>
  1012ec:	e51b3008 	ldr	r3, [fp, #-8]
  1012f0:	e5933000 	ldr	r3, [r3]
  1012f4:	e3530002 	cmp	r3, #2
  1012f8:	0a000001 	beq	101304 <rt_sem_take+0x50>
  1012fc:	e3a03008 	mov	r3, #8
  101300:	ea000006 	b	101320 <rt_sem_take+0x6c>
    return syscall(_NRSYS_sem_take, sem->data, time);
  101304:	e51b3008 	ldr	r3, [fp, #-8]
  101308:	e5933004 	ldr	r3, [r3, #4]
  10130c:	e51b200c 	ldr	r2, [fp, #-12]
  101310:	e1a01003 	mov	r1, r3
  101314:	e3a00014 	mov	r0, #20
  101318:	eb00eccf 	bl	13c65c <syscall>
  10131c:	e1a03000 	mov	r3, r0
}
  101320:	e1a00003 	mov	r0, r3
  101324:	e24bd004 	sub	sp, fp, #4
  101328:	e8bd8800 	pop	{fp, pc}

0010132c <rt_mb_create>:

rt_mailbox_t rt_mb_create(const char *name, rt_size_t size, rt_uint8_t flag)
{
  10132c:	e92d4800 	push	{fp, lr}
  101330:	e28db004 	add	fp, sp, #4
  101334:	e24dd018 	sub	sp, sp, #24
  101338:	e50b0010 	str	r0, [fp, #-16]
  10133c:	e50b1014 	str	r1, [fp, #-20]	; 0xffffffec
  101340:	e1a03002 	mov	r3, r2
  101344:	e54b3015 	strb	r3, [fp, #-21]	; 0xffffffeb
    RT_USER_IPC_CREATE(RT_Object_Class_MailBox, _NRSYS_mb_create, name, size, flag);
  101348:	e3a00008 	mov	r0, #8
  10134c:	eb00f07f 	bl	13d550 <malloc>
  101350:	e1a03000 	mov	r3, r0
  101354:	e50b3008 	str	r3, [fp, #-8]
  101358:	e51b3008 	ldr	r3, [fp, #-8]
  10135c:	e3530000 	cmp	r3, #0
  101360:	1a000001 	bne	10136c <rt_mb_create+0x40>
  101364:	e3a03000 	mov	r3, #0
  101368:	ea000015 	b	1013c4 <rt_mb_create+0x98>
  10136c:	e55b3015 	ldrb	r3, [fp, #-21]	; 0xffffffeb
  101370:	e51b2014 	ldr	r2, [fp, #-20]	; 0xffffffec
  101374:	e51b1010 	ldr	r1, [fp, #-16]
  101378:	e3a0001e 	mov	r0, #30
  10137c:	eb00ecb6 	bl	13c65c <syscall>
  101380:	e1a03000 	mov	r3, r0
  101384:	e1a02003 	mov	r2, r3
  101388:	e51b3008 	ldr	r3, [fp, #-8]
  10138c:	e5832004 	str	r2, [r3, #4]
  101390:	e51b3008 	ldr	r3, [fp, #-8]
  101394:	e5933004 	ldr	r3, [r3, #4]
  101398:	e3530000 	cmp	r3, #0
  10139c:	0a000003 	beq	1013b0 <rt_mb_create+0x84>
  1013a0:	e51b3008 	ldr	r3, [fp, #-8]
  1013a4:	e3a02005 	mov	r2, #5
  1013a8:	e5832000 	str	r2, [r3]
  1013ac:	ea000003 	b	1013c0 <rt_mb_create+0x94>
  1013b0:	e51b0008 	ldr	r0, [fp, #-8]
  1013b4:	eb00f221 	bl	13dc40 <free>
  1013b8:	e3a03000 	mov	r3, #0
  1013bc:	e50b3008 	str	r3, [fp, #-8]
  1013c0:	e51b3008 	ldr	r3, [fp, #-8]
}
  1013c4:	e1a00003 	mov	r0, r3
  1013c8:	e24bd004 	sub	sp, fp, #4
  1013cc:	e8bd8800 	pop	{fp, pc}

001013d0 <rt_mb_init>:
rt_err_t rt_mb_init(rt_mailbox_t mb,
                    const char  *name,
                    void        *msgpool,
                    rt_size_t    size,
                    rt_uint8_t   flag)
{
  1013d0:	e92d4800 	push	{fp, lr}
  1013d4:	e28db004 	add	fp, sp, #4
  1013d8:	e24dd010 	sub	sp, sp, #16
  1013dc:	e50b0008 	str	r0, [fp, #-8]
  1013e0:	e50b100c 	str	r1, [fp, #-12]
  1013e4:	e50b2010 	str	r2, [fp, #-16]
  1013e8:	e50b3014 	str	r3, [fp, #-20]	; 0xffffffec
    RT_USER_IPC_INIT(mb, RT_Object_Class_MailBox, _NRSYS_mb_create, name, size, flag);
  1013ec:	e51b3008 	ldr	r3, [fp, #-8]
  1013f0:	e3530000 	cmp	r3, #0
  1013f4:	1a000001 	bne	101400 <rt_mb_init+0x30>
  1013f8:	e3a03008 	mov	r3, #8
  1013fc:	ea000012 	b	10144c <rt_mb_init+0x7c>
  101400:	e5db3004 	ldrb	r3, [fp, #4]
  101404:	e51b2014 	ldr	r2, [fp, #-20]	; 0xffffffec
  101408:	e51b100c 	ldr	r1, [fp, #-12]
  10140c:	e3a0001e 	mov	r0, #30
  101410:	eb00ec91 	bl	13c65c <syscall>
  101414:	e1a03000 	mov	r3, r0
  101418:	e1a02003 	mov	r2, r3
  10141c:	e51b3008 	ldr	r3, [fp, #-8]
  101420:	e5832004 	str	r2, [r3, #4]
  101424:	e51b3008 	ldr	r3, [fp, #-8]
  101428:	e5933004 	ldr	r3, [r3, #4]
  10142c:	e3530000 	cmp	r3, #0
  101430:	0a000004 	beq	101448 <rt_mb_init+0x78>
  101434:	e51b3008 	ldr	r3, [fp, #-8]
  101438:	e3a02005 	mov	r2, #5
  10143c:	e5832000 	str	r2, [r3]
  101440:	e3a03000 	mov	r3, #0
  101444:	ea000000 	b	10144c <rt_mb_init+0x7c>
  101448:	e3a03001 	mov	r3, #1
}
  10144c:	e1a00003 	mov	r0, r3
  101450:	e24bd004 	sub	sp, fp, #4
  101454:	e8bd8800 	pop	{fp, pc}

00101458 <rt_mb_delete>:


rt_err_t rt_mb_delete(rt_mailbox_t mb)
{
  101458:	e92d4800 	push	{fp, lr}
  10145c:	e28db004 	add	fp, sp, #4
  101460:	e24dd010 	sub	sp, sp, #16
  101464:	e50b0010 	str	r0, [fp, #-16]
    RT_USER_IPC_DELETE(mb, RT_Object_Class_MailBox, _NRSYS_mb_delete);
  101468:	e51b3010 	ldr	r3, [fp, #-16]
  10146c:	e3530000 	cmp	r3, #0
  101470:	0a000003 	beq	101484 <rt_mb_delete+0x2c>
  101474:	e51b3010 	ldr	r3, [fp, #-16]
  101478:	e5933004 	ldr	r3, [r3, #4]
  10147c:	e3530000 	cmp	r3, #0
  101480:	1a000001 	bne	10148c <rt_mb_delete+0x34>
  101484:	e3a03008 	mov	r3, #8
  101488:	ea000013 	b	1014dc <rt_mb_delete+0x84>
  10148c:	e51b3010 	ldr	r3, [fp, #-16]
  101490:	e5933000 	ldr	r3, [r3]
  101494:	e3530005 	cmp	r3, #5
  101498:	0a000001 	beq	1014a4 <rt_mb_delete+0x4c>
  10149c:	e3a03008 	mov	r3, #8
  1014a0:	ea00000d 	b	1014dc <rt_mb_delete+0x84>
  1014a4:	e51b3010 	ldr	r3, [fp, #-16]
  1014a8:	e5933004 	ldr	r3, [r3, #4]
  1014ac:	e1a01003 	mov	r1, r3
  1014b0:	e3a0001f 	mov	r0, #31
  1014b4:	eb00ec68 	bl	13c65c <syscall>
  1014b8:	e50b0008 	str	r0, [fp, #-8]
  1014bc:	e51b3008 	ldr	r3, [fp, #-8]
  1014c0:	e3530000 	cmp	r3, #0
  1014c4:	0a000001 	beq	1014d0 <rt_mb_delete+0x78>
  1014c8:	e51b3008 	ldr	r3, [fp, #-8]
  1014cc:	ea000002 	b	1014dc <rt_mb_delete+0x84>
  1014d0:	e51b0010 	ldr	r0, [fp, #-16]
  1014d4:	eb00f1d9 	bl	13dc40 <free>
  1014d8:	e3a03000 	mov	r3, #0
}
  1014dc:	e1a00003 	mov	r0, r3
  1014e0:	e24bd004 	sub	sp, fp, #4
  1014e4:	e8bd8800 	pop	{fp, pc}

001014e8 <rt_mb_detach>:

rt_err_t rt_mb_detach(rt_mailbox_t mb)
{
  1014e8:	e92d4800 	push	{fp, lr}
  1014ec:	e28db004 	add	fp, sp, #4
  1014f0:	e24dd010 	sub	sp, sp, #16
  1014f4:	e50b0010 	str	r0, [fp, #-16]
    RT_USER_IPC_DETACH(mb, RT_Object_Class_MailBox, _NRSYS_mb_delete);
  1014f8:	e51b3010 	ldr	r3, [fp, #-16]
  1014fc:	e3530000 	cmp	r3, #0
  101500:	0a000003 	beq	101514 <rt_mb_detach+0x2c>
  101504:	e51b3010 	ldr	r3, [fp, #-16]
  101508:	e5933004 	ldr	r3, [r3, #4]
  10150c:	e3530000 	cmp	r3, #0
  101510:	1a000001 	bne	10151c <rt_mb_detach+0x34>
  101514:	e3a03008 	mov	r3, #8
  101518:	ea000017 	b	10157c <rt_mb_detach+0x94>
  10151c:	e51b3010 	ldr	r3, [fp, #-16]
  101520:	e5933000 	ldr	r3, [r3]
  101524:	e3530005 	cmp	r3, #5
  101528:	0a000001 	beq	101534 <rt_mb_detach+0x4c>
  10152c:	e3a03008 	mov	r3, #8
  101530:	ea000011 	b	10157c <rt_mb_detach+0x94>
  101534:	e51b3010 	ldr	r3, [fp, #-16]
  101538:	e5933004 	ldr	r3, [r3, #4]
  10153c:	e1a01003 	mov	r1, r3
  101540:	e3a0001f 	mov	r0, #31
  101544:	eb00ec44 	bl	13c65c <syscall>
  101548:	e50b0008 	str	r0, [fp, #-8]
  10154c:	e51b3008 	ldr	r3, [fp, #-8]
  101550:	e3530000 	cmp	r3, #0
  101554:	0a000001 	beq	101560 <rt_mb_detach+0x78>
  101558:	e51b3008 	ldr	r3, [fp, #-8]
  10155c:	ea000006 	b	10157c <rt_mb_detach+0x94>
  101560:	e51b3010 	ldr	r3, [fp, #-16]
  101564:	e3a02000 	mov	r2, #0
  101568:	e5832000 	str	r2, [r3]
  10156c:	e51b3010 	ldr	r3, [fp, #-16]
  101570:	e3a02000 	mov	r2, #0
  101574:	e5832004 	str	r2, [r3, #4]
  101578:	e3a03000 	mov	r3, #0
}
  10157c:	e1a00003 	mov	r0, r3
  101580:	e24bd004 	sub	sp, fp, #4
  101584:	e8bd8800 	pop	{fp, pc}

00101588 <rt_mb_send_wait>:

rt_err_t rt_mb_send_wait(rt_mailbox_t mb,
        rt_ubase_t   value,
        rt_int32_t   timeout)
{
  101588:	e92d4800 	push	{fp, lr}
  10158c:	e28db004 	add	fp, sp, #4
  101590:	e24dd010 	sub	sp, sp, #16
  101594:	e50b0008 	str	r0, [fp, #-8]
  101598:	e50b100c 	str	r1, [fp, #-12]
  10159c:	e50b2010 	str	r2, [fp, #-16]
    RT_USER_IPC_CHECK(mb, RT_Object_Class_MailBox);
  1015a0:	e51b3008 	ldr	r3, [fp, #-8]
  1015a4:	e3530000 	cmp	r3, #0
  1015a8:	0a000003 	beq	1015bc <rt_mb_send_wait+0x34>
  1015ac:	e51b3008 	ldr	r3, [fp, #-8]
  1015b0:	e5933004 	ldr	r3, [r3, #4]
  1015b4:	e3530000 	cmp	r3, #0
  1015b8:	1a000001 	bne	1015c4 <rt_mb_send_wait+0x3c>
  1015bc:	e3a03008 	mov	r3, #8
  1015c0:	ea00000c 	b	1015f8 <rt_mb_send_wait+0x70>
  1015c4:	e51b3008 	ldr	r3, [fp, #-8]
  1015c8:	e5933000 	ldr	r3, [r3]
  1015cc:	e3530005 	cmp	r3, #5
  1015d0:	0a000001 	beq	1015dc <rt_mb_send_wait+0x54>
  1015d4:	e3a03008 	mov	r3, #8
  1015d8:	ea000006 	b	1015f8 <rt_mb_send_wait+0x70>
    return syscall(_NRSYS_mb_send_wait, mb->data, value, timeout);
  1015dc:	e51b3008 	ldr	r3, [fp, #-8]
  1015e0:	e5931004 	ldr	r1, [r3, #4]
  1015e4:	e51b3010 	ldr	r3, [fp, #-16]
  1015e8:	e51b200c 	ldr	r2, [fp, #-12]
  1015ec:	e3a00021 	mov	r0, #33	; 0x21
  1015f0:	eb00ec19 	bl	13c65c <syscall>
  1015f4:	e1a03000 	mov	r3, r0
}
  1015f8:	e1a00003 	mov	r0, r3
  1015fc:	e24bd004 	sub	sp, fp, #4
  101600:	e8bd8800 	pop	{fp, pc}

00101604 <rt_mb_send>:

rt_err_t rt_mb_send(rt_mailbox_t mb, rt_ubase_t value)
{
  101604:	e92d4800 	push	{fp, lr}
  101608:	e28db004 	add	fp, sp, #4
  10160c:	e24dd008 	sub	sp, sp, #8
  101610:	e50b0008 	str	r0, [fp, #-8]
  101614:	e50b100c 	str	r1, [fp, #-12]
    RT_USER_IPC_CHECK(mb, RT_Object_Class_MailBox);
  101618:	e51b3008 	ldr	r3, [fp, #-8]
  10161c:	e3530000 	cmp	r3, #0
  101620:	0a000003 	beq	101634 <rt_mb_send+0x30>
  101624:	e51b3008 	ldr	r3, [fp, #-8]
  101628:	e5933004 	ldr	r3, [r3, #4]
  10162c:	e3530000 	cmp	r3, #0
  101630:	1a000001 	bne	10163c <rt_mb_send+0x38>
  101634:	e3a03008 	mov	r3, #8
  101638:	ea00000c 	b	101670 <rt_mb_send+0x6c>
  10163c:	e51b3008 	ldr	r3, [fp, #-8]
  101640:	e5933000 	ldr	r3, [r3]
  101644:	e3530005 	cmp	r3, #5
  101648:	0a000001 	beq	101654 <rt_mb_send+0x50>
  10164c:	e3a03008 	mov	r3, #8
  101650:	ea000006 	b	101670 <rt_mb_send+0x6c>
    return syscall(_NRSYS_mb_send, mb->data, value);
  101654:	e51b3008 	ldr	r3, [fp, #-8]
  101658:	e5933004 	ldr	r3, [r3, #4]
  10165c:	e51b200c 	ldr	r2, [fp, #-12]
  101660:	e1a01003 	mov	r1, r3
  101664:	e3a00020 	mov	r0, #32
  101668:	eb00ebfb 	bl	13c65c <syscall>
  10166c:	e1a03000 	mov	r3, r0
}
  101670:	e1a00003 	mov	r0, r3
  101674:	e24bd004 	sub	sp, fp, #4
  101678:	e8bd8800 	pop	{fp, pc}

0010167c <rt_mb_recv>:

rt_err_t rt_mb_recv(rt_mailbox_t mb, rt_ubase_t *value, rt_int32_t timeout)
{
  10167c:	e92d4800 	push	{fp, lr}
  101680:	e28db004 	add	fp, sp, #4
  101684:	e24dd010 	sub	sp, sp, #16
  101688:	e50b0008 	str	r0, [fp, #-8]
  10168c:	e50b100c 	str	r1, [fp, #-12]
  101690:	e50b2010 	str	r2, [fp, #-16]
    RT_USER_IPC_CHECK(mb, RT_Object_Class_MailBox);
  101694:	e51b3008 	ldr	r3, [fp, #-8]
  101698:	e3530000 	cmp	r3, #0
  10169c:	0a000003 	beq	1016b0 <rt_mb_recv+0x34>
  1016a0:	e51b3008 	ldr	r3, [fp, #-8]
  1016a4:	e5933004 	ldr	r3, [r3, #4]
  1016a8:	e3530000 	cmp	r3, #0
  1016ac:	1a000001 	bne	1016b8 <rt_mb_recv+0x3c>
  1016b0:	e3a03008 	mov	r3, #8
  1016b4:	ea00000c 	b	1016ec <rt_mb_recv+0x70>
  1016b8:	e51b3008 	ldr	r3, [fp, #-8]
  1016bc:	e5933000 	ldr	r3, [r3]
  1016c0:	e3530005 	cmp	r3, #5
  1016c4:	0a000001 	beq	1016d0 <rt_mb_recv+0x54>
  1016c8:	e3a03008 	mov	r3, #8
  1016cc:	ea000006 	b	1016ec <rt_mb_recv+0x70>
    return syscall(_NRSYS_mb_recv, mb->data, value, timeout);
  1016d0:	e51b3008 	ldr	r3, [fp, #-8]
  1016d4:	e5931004 	ldr	r1, [r3, #4]
  1016d8:	e51b3010 	ldr	r3, [fp, #-16]
  1016dc:	e51b200c 	ldr	r2, [fp, #-12]
  1016e0:	e3a00022 	mov	r0, #34	; 0x22
  1016e4:	eb00ebdc 	bl	13c65c <syscall>
  1016e8:	e1a03000 	mov	r3, r0
}
  1016ec:	e1a00003 	mov	r0, r3
  1016f0:	e24bd004 	sub	sp, fp, #4
  1016f4:	e8bd8800 	pop	{fp, pc}

001016f8 <rt_mq_create>:

rt_mq_t rt_mq_create(const char *name,
                     rt_size_t   msg_size,
                     rt_size_t   max_msgs,
                     rt_uint8_t  flag)
{
  1016f8:	e92d4800 	push	{fp, lr}
  1016fc:	e28db004 	add	fp, sp, #4
  101700:	e24dd020 	sub	sp, sp, #32
  101704:	e50b0010 	str	r0, [fp, #-16]
  101708:	e50b1014 	str	r1, [fp, #-20]	; 0xffffffec
  10170c:	e50b2018 	str	r2, [fp, #-24]	; 0xffffffe8
  101710:	e54b3019 	strb	r3, [fp, #-25]	; 0xffffffe7
    RT_USER_IPC_CREATE(RT_Object_Class_MessageQueue, _NRSYS_mq_create, name, msg_size, max_msgs, flag);
  101714:	e3a00008 	mov	r0, #8
  101718:	eb00ef8c 	bl	13d550 <malloc>
  10171c:	e1a03000 	mov	r3, r0
  101720:	e50b3008 	str	r3, [fp, #-8]
  101724:	e51b3008 	ldr	r3, [fp, #-8]
  101728:	e3530000 	cmp	r3, #0
  10172c:	1a000001 	bne	101738 <rt_mq_create+0x40>
  101730:	e3a03000 	mov	r3, #0
  101734:	ea000017 	b	101798 <rt_mq_create+0xa0>
  101738:	e55b3019 	ldrb	r3, [fp, #-25]	; 0xffffffe7
  10173c:	e58d3000 	str	r3, [sp]
  101740:	e51b3018 	ldr	r3, [fp, #-24]	; 0xffffffe8
  101744:	e51b2014 	ldr	r2, [fp, #-20]	; 0xffffffec
  101748:	e51b1010 	ldr	r1, [fp, #-16]
  10174c:	e3a00023 	mov	r0, #35	; 0x23
  101750:	eb00ebc1 	bl	13c65c <syscall>
  101754:	e1a03000 	mov	r3, r0
  101758:	e1a02003 	mov	r2, r3
  10175c:	e51b3008 	ldr	r3, [fp, #-8]
  101760:	e5832004 	str	r2, [r3, #4]
  101764:	e51b3008 	ldr	r3, [fp, #-8]
  101768:	e5933004 	ldr	r3, [r3, #4]
  10176c:	e3530000 	cmp	r3, #0
  101770:	0a000003 	beq	101784 <rt_mq_create+0x8c>
  101774:	e51b3008 	ldr	r3, [fp, #-8]
  101778:	e3a02006 	mov	r2, #6
  10177c:	e5832000 	str	r2, [r3]
  101780:	ea000003 	b	101794 <rt_mq_create+0x9c>
  101784:	e51b0008 	ldr	r0, [fp, #-8]
  101788:	eb00f12c 	bl	13dc40 <free>
  10178c:	e3a03000 	mov	r3, #0
  101790:	e50b3008 	str	r3, [fp, #-8]
  101794:	e51b3008 	ldr	r3, [fp, #-8]
}
  101798:	e1a00003 	mov	r0, r3
  10179c:	e24bd004 	sub	sp, fp, #4
  1017a0:	e8bd8800 	pop	{fp, pc}

001017a4 <rt_mq_init>:
                    const char *name,
                    void       *msgpool,
                    rt_size_t   msg_size,
                    rt_size_t   pool_size,
                    rt_uint8_t  flag)
{
  1017a4:	e92d4800 	push	{fp, lr}
  1017a8:	e28db004 	add	fp, sp, #4
  1017ac:	e24dd018 	sub	sp, sp, #24
  1017b0:	e50b0008 	str	r0, [fp, #-8]
  1017b4:	e50b100c 	str	r1, [fp, #-12]
  1017b8:	e50b2010 	str	r2, [fp, #-16]
  1017bc:	e50b3014 	str	r3, [fp, #-20]	; 0xffffffec
    RT_USER_IPC_INIT(mq, RT_Object_Class_MessageQueue, _NRSYS_mq_create, name, msg_size, pool_size/msg_size, flag);
  1017c0:	e51b3008 	ldr	r3, [fp, #-8]
  1017c4:	e3530000 	cmp	r3, #0
  1017c8:	1a000001 	bne	1017d4 <rt_mq_init+0x30>
  1017cc:	e3a03008 	mov	r3, #8
  1017d0:	ea000019 	b	10183c <rt_mq_init+0x98>
  1017d4:	e51b1014 	ldr	r1, [fp, #-20]	; 0xffffffec
  1017d8:	e59b0004 	ldr	r0, [fp, #4]
  1017dc:	eb00dca4 	bl	138a74 <__udivsi3>
  1017e0:	e1a03000 	mov	r3, r0
  1017e4:	e1a02003 	mov	r2, r3
  1017e8:	e5db3008 	ldrb	r3, [fp, #8]
  1017ec:	e58d3000 	str	r3, [sp]
  1017f0:	e1a03002 	mov	r3, r2
  1017f4:	e51b2014 	ldr	r2, [fp, #-20]	; 0xffffffec
  1017f8:	e51b100c 	ldr	r1, [fp, #-12]
  1017fc:	e3a00023 	mov	r0, #35	; 0x23
  101800:	eb00eb95 	bl	13c65c <syscall>
  101804:	e1a03000 	mov	r3, r0
  101808:	e1a02003 	mov	r2, r3
  10180c:	e51b3008 	ldr	r3, [fp, #-8]
  101810:	e5832004 	str	r2, [r3, #4]
  101814:	e51b3008 	ldr	r3, [fp, #-8]
  101818:	e5933004 	ldr	r3, [r3, #4]
  10181c:	e3530000 	cmp	r3, #0
  101820:	0a000004 	beq	101838 <rt_mq_init+0x94>
  101824:	e51b3008 	ldr	r3, [fp, #-8]
  101828:	e3a02006 	mov	r2, #6
  10182c:	e5832000 	str	r2, [r3]
  101830:	e3a03000 	mov	r3, #0
  101834:	ea000000 	b	10183c <rt_mq_init+0x98>
  101838:	e3a03001 	mov	r3, #1
}
  10183c:	e1a00003 	mov	r0, r3
  101840:	e24bd004 	sub	sp, fp, #4
  101844:	e8bd8800 	pop	{fp, pc}

00101848 <rt_mq_delete>:

rt_err_t rt_mq_delete(rt_mq_t mq)
{
  101848:	e92d4800 	push	{fp, lr}
  10184c:	e28db004 	add	fp, sp, #4
  101850:	e24dd010 	sub	sp, sp, #16
  101854:	e50b0010 	str	r0, [fp, #-16]
    RT_USER_IPC_DELETE(mq, RT_Object_Class_MessageQueue, _NRSYS_mq_delete);
  101858:	e51b3010 	ldr	r3, [fp, #-16]
  10185c:	e3530000 	cmp	r3, #0
  101860:	0a000003 	beq	101874 <rt_mq_delete+0x2c>
  101864:	e51b3010 	ldr	r3, [fp, #-16]
  101868:	e5933004 	ldr	r3, [r3, #4]
  10186c:	e3530000 	cmp	r3, #0
  101870:	1a000001 	bne	10187c <rt_mq_delete+0x34>
  101874:	e3a03008 	mov	r3, #8
  101878:	ea000013 	b	1018cc <rt_mq_delete+0x84>
  10187c:	e51b3010 	ldr	r3, [fp, #-16]
  101880:	e5933000 	ldr	r3, [r3]
  101884:	e3530006 	cmp	r3, #6
  101888:	0a000001 	beq	101894 <rt_mq_delete+0x4c>
  10188c:	e3a03008 	mov	r3, #8
  101890:	ea00000d 	b	1018cc <rt_mq_delete+0x84>
  101894:	e51b3010 	ldr	r3, [fp, #-16]
  101898:	e5933004 	ldr	r3, [r3, #4]
  10189c:	e1a01003 	mov	r1, r3
  1018a0:	e3a00024 	mov	r0, #36	; 0x24
  1018a4:	eb00eb6c 	bl	13c65c <syscall>
  1018a8:	e50b0008 	str	r0, [fp, #-8]
  1018ac:	e51b3008 	ldr	r3, [fp, #-8]
  1018b0:	e3530000 	cmp	r3, #0
  1018b4:	0a000001 	beq	1018c0 <rt_mq_delete+0x78>
  1018b8:	e51b3008 	ldr	r3, [fp, #-8]
  1018bc:	ea000002 	b	1018cc <rt_mq_delete+0x84>
  1018c0:	e51b0010 	ldr	r0, [fp, #-16]
  1018c4:	eb00f0dd 	bl	13dc40 <free>
  1018c8:	e3a03000 	mov	r3, #0
}
  1018cc:	e1a00003 	mov	r0, r3
  1018d0:	e24bd004 	sub	sp, fp, #4
  1018d4:	e8bd8800 	pop	{fp, pc}

001018d8 <rt_mq_detach>:

rt_err_t rt_mq_detach(rt_mq_t mq)
{
  1018d8:	e92d4800 	push	{fp, lr}
  1018dc:	e28db004 	add	fp, sp, #4
  1018e0:	e24dd010 	sub	sp, sp, #16
  1018e4:	e50b0010 	str	r0, [fp, #-16]
    RT_USER_IPC_DETACH(mq, RT_Object_Class_MessageQueue, _NRSYS_mq_delete);
  1018e8:	e51b3010 	ldr	r3, [fp, #-16]
  1018ec:	e3530000 	cmp	r3, #0
  1018f0:	0a000003 	beq	101904 <rt_mq_detach+0x2c>
  1018f4:	e51b3010 	ldr	r3, [fp, #-16]
  1018f8:	e5933004 	ldr	r3, [r3, #4]
  1018fc:	e3530000 	cmp	r3, #0
  101900:	1a000001 	bne	10190c <rt_mq_detach+0x34>
  101904:	e3a03008 	mov	r3, #8
  101908:	ea000017 	b	10196c <rt_mq_detach+0x94>
  10190c:	e51b3010 	ldr	r3, [fp, #-16]
  101910:	e5933000 	ldr	r3, [r3]
  101914:	e3530006 	cmp	r3, #6
  101918:	0a000001 	beq	101924 <rt_mq_detach+0x4c>
  10191c:	e3a03008 	mov	r3, #8
  101920:	ea000011 	b	10196c <rt_mq_detach+0x94>
  101924:	e51b3010 	ldr	r3, [fp, #-16]
  101928:	e5933004 	ldr	r3, [r3, #4]
  10192c:	e1a01003 	mov	r1, r3
  101930:	e3a00024 	mov	r0, #36	; 0x24
  101934:	eb00eb48 	bl	13c65c <syscall>
  101938:	e50b0008 	str	r0, [fp, #-8]
  10193c:	e51b3008 	ldr	r3, [fp, #-8]
  101940:	e3530000 	cmp	r3, #0
  101944:	0a000001 	beq	101950 <rt_mq_detach+0x78>
  101948:	e51b3008 	ldr	r3, [fp, #-8]
  10194c:	ea000006 	b	10196c <rt_mq_detach+0x94>
  101950:	e51b3010 	ldr	r3, [fp, #-16]
  101954:	e3a02000 	mov	r2, #0
  101958:	e5832000 	str	r2, [r3]
  10195c:	e51b3010 	ldr	r3, [fp, #-16]
  101960:	e3a02000 	mov	r2, #0
  101964:	e5832004 	str	r2, [r3, #4]
  101968:	e3a03000 	mov	r3, #0
}
  10196c:	e1a00003 	mov	r0, r3
  101970:	e24bd004 	sub	sp, fp, #4
  101974:	e8bd8800 	pop	{fp, pc}

00101978 <rt_mq_send>:

rt_err_t rt_mq_send(rt_mq_t mq, const void *buffer, rt_size_t size)
{
  101978:	e92d4800 	push	{fp, lr}
  10197c:	e28db004 	add	fp, sp, #4
  101980:	e24dd010 	sub	sp, sp, #16
  101984:	e50b0008 	str	r0, [fp, #-8]
  101988:	e50b100c 	str	r1, [fp, #-12]
  10198c:	e50b2010 	str	r2, [fp, #-16]
    RT_USER_IPC_CHECK(mq, RT_Object_Class_MessageQueue);
  101990:	e51b3008 	ldr	r3, [fp, #-8]
  101994:	e3530000 	cmp	r3, #0
  101998:	0a000003 	beq	1019ac <rt_mq_send+0x34>
  10199c:	e51b3008 	ldr	r3, [fp, #-8]
  1019a0:	e5933004 	ldr	r3, [r3, #4]
  1019a4:	e3530000 	cmp	r3, #0
  1019a8:	1a000001 	bne	1019b4 <rt_mq_send+0x3c>
  1019ac:	e3a03008 	mov	r3, #8
  1019b0:	ea00000c 	b	1019e8 <rt_mq_send+0x70>
  1019b4:	e51b3008 	ldr	r3, [fp, #-8]
  1019b8:	e5933000 	ldr	r3, [r3]
  1019bc:	e3530006 	cmp	r3, #6
  1019c0:	0a000001 	beq	1019cc <rt_mq_send+0x54>
  1019c4:	e3a03008 	mov	r3, #8
  1019c8:	ea000006 	b	1019e8 <rt_mq_send+0x70>
    return syscall(_NRSYS_mq_send, mq->data, buffer, size);
  1019cc:	e51b3008 	ldr	r3, [fp, #-8]
  1019d0:	e5931004 	ldr	r1, [r3, #4]
  1019d4:	e51b3010 	ldr	r3, [fp, #-16]
  1019d8:	e51b200c 	ldr	r2, [fp, #-12]
  1019dc:	e3a00025 	mov	r0, #37	; 0x25
  1019e0:	eb00eb1d 	bl	13c65c <syscall>
  1019e4:	e1a03000 	mov	r3, r0
}
  1019e8:	e1a00003 	mov	r0, r3
  1019ec:	e24bd004 	sub	sp, fp, #4
  1019f0:	e8bd8800 	pop	{fp, pc}

001019f4 <rt_mq_urgent>:

rt_err_t rt_mq_urgent(rt_mq_t mq, const void *buffer, rt_size_t size)
{
  1019f4:	e92d4800 	push	{fp, lr}
  1019f8:	e28db004 	add	fp, sp, #4
  1019fc:	e24dd010 	sub	sp, sp, #16
  101a00:	e50b0008 	str	r0, [fp, #-8]
  101a04:	e50b100c 	str	r1, [fp, #-12]
  101a08:	e50b2010 	str	r2, [fp, #-16]
    RT_USER_IPC_CHECK(mq, RT_Object_Class_MessageQueue);
  101a0c:	e51b3008 	ldr	r3, [fp, #-8]
  101a10:	e3530000 	cmp	r3, #0
  101a14:	0a000003 	beq	101a28 <rt_mq_urgent+0x34>
  101a18:	e51b3008 	ldr	r3, [fp, #-8]
  101a1c:	e5933004 	ldr	r3, [r3, #4]
  101a20:	e3530000 	cmp	r3, #0
  101a24:	1a000001 	bne	101a30 <rt_mq_urgent+0x3c>
  101a28:	e3a03008 	mov	r3, #8
  101a2c:	ea00000c 	b	101a64 <rt_mq_urgent+0x70>
  101a30:	e51b3008 	ldr	r3, [fp, #-8]
  101a34:	e5933000 	ldr	r3, [r3]
  101a38:	e3530006 	cmp	r3, #6
  101a3c:	0a000001 	beq	101a48 <rt_mq_urgent+0x54>
  101a40:	e3a03008 	mov	r3, #8
  101a44:	ea000006 	b	101a64 <rt_mq_urgent+0x70>
    return syscall(_NRSYS_mq_urgent, mq->data, buffer, size);
  101a48:	e51b3008 	ldr	r3, [fp, #-8]
  101a4c:	e5931004 	ldr	r1, [r3, #4]
  101a50:	e51b3010 	ldr	r3, [fp, #-16]
  101a54:	e51b200c 	ldr	r2, [fp, #-12]
  101a58:	e3a00026 	mov	r0, #38	; 0x26
  101a5c:	eb00eafe 	bl	13c65c <syscall>
  101a60:	e1a03000 	mov	r3, r0
}
  101a64:	e1a00003 	mov	r0, r3
  101a68:	e24bd004 	sub	sp, fp, #4
  101a6c:	e8bd8800 	pop	{fp, pc}

00101a70 <rt_mq_recv>:

rt_err_t rt_mq_recv(rt_mq_t    mq,
                    void      *buffer,
                    rt_size_t  size,
                    rt_int32_t timeout)
{
  101a70:	e92d4800 	push	{fp, lr}
  101a74:	e28db004 	add	fp, sp, #4
  101a78:	e24dd018 	sub	sp, sp, #24
  101a7c:	e50b0008 	str	r0, [fp, #-8]
  101a80:	e50b100c 	str	r1, [fp, #-12]
  101a84:	e50b2010 	str	r2, [fp, #-16]
  101a88:	e50b3014 	str	r3, [fp, #-20]	; 0xffffffec
    RT_USER_IPC_CHECK(mq, RT_Object_Class_MessageQueue);
  101a8c:	e51b3008 	ldr	r3, [fp, #-8]
  101a90:	e3530000 	cmp	r3, #0
  101a94:	0a000003 	beq	101aa8 <rt_mq_recv+0x38>
  101a98:	e51b3008 	ldr	r3, [fp, #-8]
  101a9c:	e5933004 	ldr	r3, [r3, #4]
  101aa0:	e3530000 	cmp	r3, #0
  101aa4:	1a000001 	bne	101ab0 <rt_mq_recv+0x40>
  101aa8:	e3a03008 	mov	r3, #8
  101aac:	ea00000e 	b	101aec <rt_mq_recv+0x7c>
  101ab0:	e51b3008 	ldr	r3, [fp, #-8]
  101ab4:	e5933000 	ldr	r3, [r3]
  101ab8:	e3530006 	cmp	r3, #6
  101abc:	0a000001 	beq	101ac8 <rt_mq_recv+0x58>
  101ac0:	e3a03008 	mov	r3, #8
  101ac4:	ea000008 	b	101aec <rt_mq_recv+0x7c>
    return syscall(_NRSYS_mq_recv, mq->data, buffer, size, timeout);
  101ac8:	e51b3008 	ldr	r3, [fp, #-8]
  101acc:	e5931004 	ldr	r1, [r3, #4]
  101ad0:	e51b3014 	ldr	r3, [fp, #-20]	; 0xffffffec
  101ad4:	e58d3000 	str	r3, [sp]
  101ad8:	e51b3010 	ldr	r3, [fp, #-16]
  101adc:	e51b200c 	ldr	r2, [fp, #-12]
  101ae0:	e3a00027 	mov	r0, #39	; 0x27
  101ae4:	eb00eadc 	bl	13c65c <syscall>
  101ae8:	e1a03000 	mov	r3, r0
}
  101aec:	e1a00003 	mov	r0, r3
  101af0:	e24bd004 	sub	sp, fp, #4
  101af4:	e8bd8800 	pop	{fp, pc}

00101af8 <rt_event_create>:

rt_event_t rt_event_create(const char *name, rt_uint8_t flag)
{
  101af8:	e92d4800 	push	{fp, lr}
  101afc:	e28db004 	add	fp, sp, #4
  101b00:	e24dd010 	sub	sp, sp, #16
  101b04:	e50b0010 	str	r0, [fp, #-16]
  101b08:	e1a03001 	mov	r3, r1
  101b0c:	e54b3011 	strb	r3, [fp, #-17]	; 0xffffffef
    RT_USER_IPC_CREATE(RT_Object_Class_Event, _NRSYS_event_create, name, flag);
  101b10:	e3a00008 	mov	r0, #8
  101b14:	eb00ee8d 	bl	13d550 <malloc>
  101b18:	e1a03000 	mov	r3, r0
  101b1c:	e50b3008 	str	r3, [fp, #-8]
  101b20:	e51b3008 	ldr	r3, [fp, #-8]
  101b24:	e3530000 	cmp	r3, #0
  101b28:	1a000001 	bne	101b34 <rt_event_create+0x3c>
  101b2c:	e3a03000 	mov	r3, #0
  101b30:	ea000015 	b	101b8c <rt_event_create+0x94>
  101b34:	e55b3011 	ldrb	r3, [fp, #-17]	; 0xffffffef
  101b38:	e1a02003 	mov	r2, r3
  101b3c:	e51b1010 	ldr	r1, [fp, #-16]
  101b40:	e3a0001a 	mov	r0, #26
  101b44:	eb00eac4 	bl	13c65c <syscall>
  101b48:	e1a03000 	mov	r3, r0
  101b4c:	e1a02003 	mov	r2, r3
  101b50:	e51b3008 	ldr	r3, [fp, #-8]
  101b54:	e5832004 	str	r2, [r3, #4]
  101b58:	e51b3008 	ldr	r3, [fp, #-8]
  101b5c:	e5933004 	ldr	r3, [r3, #4]
  101b60:	e3530000 	cmp	r3, #0
  101b64:	0a000003 	beq	101b78 <rt_event_create+0x80>
  101b68:	e51b3008 	ldr	r3, [fp, #-8]
  101b6c:	e3a02004 	mov	r2, #4
  101b70:	e5832000 	str	r2, [r3]
  101b74:	ea000003 	b	101b88 <rt_event_create+0x90>
  101b78:	e51b0008 	ldr	r0, [fp, #-8]
  101b7c:	eb00f02f 	bl	13dc40 <free>
  101b80:	e3a03000 	mov	r3, #0
  101b84:	e50b3008 	str	r3, [fp, #-8]
  101b88:	e51b3008 	ldr	r3, [fp, #-8]
}
  101b8c:	e1a00003 	mov	r0, r3
  101b90:	e24bd004 	sub	sp, fp, #4
  101b94:	e8bd8800 	pop	{fp, pc}

00101b98 <rt_event_init>:

rt_err_t rt_event_init(rt_event_t event, const char *name, rt_uint8_t flag)
{
  101b98:	e92d4800 	push	{fp, lr}
  101b9c:	e28db004 	add	fp, sp, #4
  101ba0:	e24dd010 	sub	sp, sp, #16
  101ba4:	e50b0008 	str	r0, [fp, #-8]
  101ba8:	e50b100c 	str	r1, [fp, #-12]
  101bac:	e1a03002 	mov	r3, r2
  101bb0:	e54b300d 	strb	r3, [fp, #-13]
    RT_USER_IPC_INIT(event, RT_Object_Class_Event, _NRSYS_event_create, name, flag);
  101bb4:	e51b3008 	ldr	r3, [fp, #-8]
  101bb8:	e3530000 	cmp	r3, #0
  101bbc:	1a000001 	bne	101bc8 <rt_event_init+0x30>
  101bc0:	e3a03008 	mov	r3, #8
  101bc4:	ea000012 	b	101c14 <rt_event_init+0x7c>
  101bc8:	e55b300d 	ldrb	r3, [fp, #-13]
  101bcc:	e1a02003 	mov	r2, r3
  101bd0:	e51b100c 	ldr	r1, [fp, #-12]
  101bd4:	e3a0001a 	mov	r0, #26
  101bd8:	eb00ea9f 	bl	13c65c <syscall>
  101bdc:	e1a03000 	mov	r3, r0
  101be0:	e1a02003 	mov	r2, r3
  101be4:	e51b3008 	ldr	r3, [fp, #-8]
  101be8:	e5832004 	str	r2, [r3, #4]
  101bec:	e51b3008 	ldr	r3, [fp, #-8]
  101bf0:	e5933004 	ldr	r3, [r3, #4]
  101bf4:	e3530000 	cmp	r3, #0
  101bf8:	0a000004 	beq	101c10 <rt_event_init+0x78>
  101bfc:	e51b3008 	ldr	r3, [fp, #-8]
  101c00:	e3a02004 	mov	r2, #4
  101c04:	e5832000 	str	r2, [r3]
  101c08:	e3a03000 	mov	r3, #0
  101c0c:	ea000000 	b	101c14 <rt_event_init+0x7c>
  101c10:	e3a03001 	mov	r3, #1
}
  101c14:	e1a00003 	mov	r0, r3
  101c18:	e24bd004 	sub	sp, fp, #4
  101c1c:	e8bd8800 	pop	{fp, pc}

00101c20 <rt_event_delete>:

rt_err_t rt_event_delete(rt_event_t event)
{
  101c20:	e92d4800 	push	{fp, lr}
  101c24:	e28db004 	add	fp, sp, #4
  101c28:	e24dd010 	sub	sp, sp, #16
  101c2c:	e50b0010 	str	r0, [fp, #-16]
    RT_USER_IPC_DELETE(event, RT_Object_Class_Event, _NRSYS_event_delete);
  101c30:	e51b3010 	ldr	r3, [fp, #-16]
  101c34:	e3530000 	cmp	r3, #0
  101c38:	0a000003 	beq	101c4c <rt_event_delete+0x2c>
  101c3c:	e51b3010 	ldr	r3, [fp, #-16]
  101c40:	e5933004 	ldr	r3, [r3, #4]
  101c44:	e3530000 	cmp	r3, #0
  101c48:	1a000001 	bne	101c54 <rt_event_delete+0x34>
  101c4c:	e3a03008 	mov	r3, #8
  101c50:	ea000013 	b	101ca4 <rt_event_delete+0x84>
  101c54:	e51b3010 	ldr	r3, [fp, #-16]
  101c58:	e5933000 	ldr	r3, [r3]
  101c5c:	e3530004 	cmp	r3, #4
  101c60:	0a000001 	beq	101c6c <rt_event_delete+0x4c>
  101c64:	e3a03008 	mov	r3, #8
  101c68:	ea00000d 	b	101ca4 <rt_event_delete+0x84>
  101c6c:	e51b3010 	ldr	r3, [fp, #-16]
  101c70:	e5933004 	ldr	r3, [r3, #4]
  101c74:	e1a01003 	mov	r1, r3
  101c78:	e3a0001b 	mov	r0, #27
  101c7c:	eb00ea76 	bl	13c65c <syscall>
  101c80:	e50b0008 	str	r0, [fp, #-8]
  101c84:	e51b3008 	ldr	r3, [fp, #-8]
  101c88:	e3530000 	cmp	r3, #0
  101c8c:	0a000001 	beq	101c98 <rt_event_delete+0x78>
  101c90:	e51b3008 	ldr	r3, [fp, #-8]
  101c94:	ea000002 	b	101ca4 <rt_event_delete+0x84>
  101c98:	e51b0010 	ldr	r0, [fp, #-16]
  101c9c:	eb00efe7 	bl	13dc40 <free>
  101ca0:	e3a03000 	mov	r3, #0
}
  101ca4:	e1a00003 	mov	r0, r3
  101ca8:	e24bd004 	sub	sp, fp, #4
  101cac:	e8bd8800 	pop	{fp, pc}

00101cb0 <rt_event_detach>:

rt_err_t rt_event_detach(rt_event_t event)
{
  101cb0:	e92d4800 	push	{fp, lr}
  101cb4:	e28db004 	add	fp, sp, #4
  101cb8:	e24dd010 	sub	sp, sp, #16
  101cbc:	e50b0010 	str	r0, [fp, #-16]
    RT_USER_IPC_DETACH(event, RT_Object_Class_Event, _NRSYS_event_delete);
  101cc0:	e51b3010 	ldr	r3, [fp, #-16]
  101cc4:	e3530000 	cmp	r3, #0
  101cc8:	0a000003 	beq	101cdc <rt_event_detach+0x2c>
  101ccc:	e51b3010 	ldr	r3, [fp, #-16]
  101cd0:	e5933004 	ldr	r3, [r3, #4]
  101cd4:	e3530000 	cmp	r3, #0
  101cd8:	1a000001 	bne	101ce4 <rt_event_detach+0x34>
  101cdc:	e3a03008 	mov	r3, #8
  101ce0:	ea000017 	b	101d44 <rt_event_detach+0x94>
  101ce4:	e51b3010 	ldr	r3, [fp, #-16]
  101ce8:	e5933000 	ldr	r3, [r3]
  101cec:	e3530004 	cmp	r3, #4
  101cf0:	0a000001 	beq	101cfc <rt_event_detach+0x4c>
  101cf4:	e3a03008 	mov	r3, #8
  101cf8:	ea000011 	b	101d44 <rt_event_detach+0x94>
  101cfc:	e51b3010 	ldr	r3, [fp, #-16]
  101d00:	e5933004 	ldr	r3, [r3, #4]
  101d04:	e1a01003 	mov	r1, r3
  101d08:	e3a0001b 	mov	r0, #27
  101d0c:	eb00ea52 	bl	13c65c <syscall>
  101d10:	e50b0008 	str	r0, [fp, #-8]
  101d14:	e51b3008 	ldr	r3, [fp, #-8]
  101d18:	e3530000 	cmp	r3, #0
  101d1c:	0a000001 	beq	101d28 <rt_event_detach+0x78>
  101d20:	e51b3008 	ldr	r3, [fp, #-8]
  101d24:	ea000006 	b	101d44 <rt_event_detach+0x94>
  101d28:	e51b3010 	ldr	r3, [fp, #-16]
  101d2c:	e3a02000 	mov	r2, #0
  101d30:	e5832000 	str	r2, [r3]
  101d34:	e51b3010 	ldr	r3, [fp, #-16]
  101d38:	e3a02000 	mov	r2, #0
  101d3c:	e5832004 	str	r2, [r3, #4]
  101d40:	e3a03000 	mov	r3, #0
}
  101d44:	e1a00003 	mov	r0, r3
  101d48:	e24bd004 	sub	sp, fp, #4
  101d4c:	e8bd8800 	pop	{fp, pc}

00101d50 <rt_event_send>:

rt_err_t rt_event_send(rt_event_t event, rt_uint32_t set)
{
  101d50:	e92d4800 	push	{fp, lr}
  101d54:	e28db004 	add	fp, sp, #4
  101d58:	e24dd008 	sub	sp, sp, #8
  101d5c:	e50b0008 	str	r0, [fp, #-8]
  101d60:	e50b100c 	str	r1, [fp, #-12]
    RT_USER_IPC_CHECK(event, RT_Object_Class_Event);
  101d64:	e51b3008 	ldr	r3, [fp, #-8]
  101d68:	e3530000 	cmp	r3, #0
  101d6c:	0a000003 	beq	101d80 <rt_event_send+0x30>
  101d70:	e51b3008 	ldr	r3, [fp, #-8]
  101d74:	e5933004 	ldr	r3, [r3, #4]
  101d78:	e3530000 	cmp	r3, #0
  101d7c:	1a000001 	bne	101d88 <rt_event_send+0x38>
  101d80:	e3a03008 	mov	r3, #8
  101d84:	ea00000c 	b	101dbc <rt_event_send+0x6c>
  101d88:	e51b3008 	ldr	r3, [fp, #-8]
  101d8c:	e5933000 	ldr	r3, [r3]
  101d90:	e3530004 	cmp	r3, #4
  101d94:	0a000001 	beq	101da0 <rt_event_send+0x50>
  101d98:	e3a03008 	mov	r3, #8
  101d9c:	ea000006 	b	101dbc <rt_event_send+0x6c>
    return syscall(_NRSYS_event_send, event->data, set);
  101da0:	e51b3008 	ldr	r3, [fp, #-8]
  101da4:	e5933004 	ldr	r3, [r3, #4]
  101da8:	e51b200c 	ldr	r2, [fp, #-12]
  101dac:	e1a01003 	mov	r1, r3
  101db0:	e3a0001c 	mov	r0, #28
  101db4:	eb00ea28 	bl	13c65c <syscall>
  101db8:	e1a03000 	mov	r3, r0
}
  101dbc:	e1a00003 	mov	r0, r3
  101dc0:	e24bd004 	sub	sp, fp, #4
  101dc4:	e8bd8800 	pop	{fp, pc}

00101dc8 <rt_event_recv>:
rt_err_t rt_event_recv(rt_event_t   event,
                       rt_uint32_t  set,
                       rt_uint8_t   opt,
                       rt_int32_t   timeout,
                       rt_uint32_t *recved)
{
  101dc8:	e92d4800 	push	{fp, lr}
  101dcc:	e28db004 	add	fp, sp, #4
  101dd0:	e24dd018 	sub	sp, sp, #24
  101dd4:	e50b0008 	str	r0, [fp, #-8]
  101dd8:	e50b100c 	str	r1, [fp, #-12]
  101ddc:	e50b3014 	str	r3, [fp, #-20]	; 0xffffffec
  101de0:	e1a03002 	mov	r3, r2
  101de4:	e54b300d 	strb	r3, [fp, #-13]
    RT_USER_IPC_CHECK(event, RT_Object_Class_Event);
  101de8:	e51b3008 	ldr	r3, [fp, #-8]
  101dec:	e3530000 	cmp	r3, #0
  101df0:	0a000003 	beq	101e04 <rt_event_recv+0x3c>
  101df4:	e51b3008 	ldr	r3, [fp, #-8]
  101df8:	e5933004 	ldr	r3, [r3, #4]
  101dfc:	e3530000 	cmp	r3, #0
  101e00:	1a000001 	bne	101e0c <rt_event_recv+0x44>
  101e04:	e3a03008 	mov	r3, #8
  101e08:	ea000011 	b	101e54 <rt_event_recv+0x8c>
  101e0c:	e51b3008 	ldr	r3, [fp, #-8]
  101e10:	e5933000 	ldr	r3, [r3]
  101e14:	e3530004 	cmp	r3, #4
  101e18:	0a000001 	beq	101e24 <rt_event_recv+0x5c>
  101e1c:	e3a03008 	mov	r3, #8
  101e20:	ea00000b 	b	101e54 <rt_event_recv+0x8c>
    return syscall(_NRSYS_event_recv, event->data, set, opt, timeout, recved);
  101e24:	e51b3008 	ldr	r3, [fp, #-8]
  101e28:	e5931004 	ldr	r1, [r3, #4]
  101e2c:	e55b200d 	ldrb	r2, [fp, #-13]
  101e30:	e59b3004 	ldr	r3, [fp, #4]
  101e34:	e58d3004 	str	r3, [sp, #4]
  101e38:	e51b3014 	ldr	r3, [fp, #-20]	; 0xffffffec
  101e3c:	e58d3000 	str	r3, [sp]
  101e40:	e1a03002 	mov	r3, r2
  101e44:	e51b200c 	ldr	r2, [fp, #-12]
  101e48:	e3a0001d 	mov	r0, #29
  101e4c:	eb00ea02 	bl	13c65c <syscall>
  101e50:	e1a03000 	mov	r3, r0
}
  101e54:	e1a00003 	mov	r0, r3
  101e58:	e24bd004 	sub	sp, fp, #4
  101e5c:	e8bd8800 	pop	{fp, pc}

00101e60 <rt_tick_get>:

rt_tick_t rt_tick_get(void)
{
  101e60:	e92d4800 	push	{fp, lr}
  101e64:	e28db004 	add	fp, sp, #4
    return (rt_tick_t)syscall(_NRSYS_rt_tick_get);
  101e68:	e3a00061 	mov	r0, #97	; 0x61
  101e6c:	eb00e9fa 	bl	13c65c <syscall>
  101e70:	e1a03000 	mov	r3, r0
}
  101e74:	e1a00003 	mov	r0, r3
  101e78:	e8bd8800 	pop	{fp, pc}

00101e7c <rt_thread_mdelay>:

rt_err_t rt_thread_mdelay(rt_int32_t ms)
{
  101e7c:	e92d4800 	push	{fp, lr}
  101e80:	e28db004 	add	fp, sp, #4
  101e84:	e24dd008 	sub	sp, sp, #8
  101e88:	e50b0008 	str	r0, [fp, #-8]
    return (rt_err_t)syscall(_NRSYS_rt_thread_mdelay, ms);
  101e8c:	e51b1008 	ldr	r1, [fp, #-8]
  101e90:	e3a00066 	mov	r0, #102	; 0x66
  101e94:	eb00e9f0 	bl	13c65c <syscall>
  101e98:	e1a03000 	mov	r3, r0
}
  101e9c:	e1a00003 	mov	r0, r3
  101ea0:	e24bd004 	sub	sp, fp, #4
  101ea4:	e8bd8800 	pop	{fp, pc}

00101ea8 <lwp_shmget>:

int lwp_shmget(size_t key, size_t size, int create)
{
  101ea8:	e92d4800 	push	{fp, lr}
  101eac:	e28db004 	add	fp, sp, #4
  101eb0:	e24dd010 	sub	sp, sp, #16
  101eb4:	e50b0008 	str	r0, [fp, #-8]
  101eb8:	e50b100c 	str	r1, [fp, #-12]
  101ebc:	e50b2010 	str	r2, [fp, #-16]
    return (int)syscall(_NRSYS_shmget, key, size, create);
  101ec0:	e51b3010 	ldr	r3, [fp, #-16]
  101ec4:	e51b200c 	ldr	r2, [fp, #-12]
  101ec8:	e51b1008 	ldr	r1, [fp, #-8]
  101ecc:	e3a00037 	mov	r0, #55	; 0x37
  101ed0:	eb00e9e1 	bl	13c65c <syscall>
  101ed4:	e1a03000 	mov	r3, r0
}
  101ed8:	e1a00003 	mov	r0, r3
  101edc:	e24bd004 	sub	sp, fp, #4
  101ee0:	e8bd8800 	pop	{fp, pc}

00101ee4 <lwp_shmrm>:

int lwp_shmrm(int id)
{
  101ee4:	e92d4800 	push	{fp, lr}
  101ee8:	e28db004 	add	fp, sp, #4
  101eec:	e24dd008 	sub	sp, sp, #8
  101ef0:	e50b0008 	str	r0, [fp, #-8]
    return (int)syscall(_NRSYS_shmrm, id);
  101ef4:	e51b1008 	ldr	r1, [fp, #-8]
  101ef8:	e3a00038 	mov	r0, #56	; 0x38
  101efc:	eb00e9d6 	bl	13c65c <syscall>
  101f00:	e1a03000 	mov	r3, r0
}
  101f04:	e1a00003 	mov	r0, r3
  101f08:	e24bd004 	sub	sp, fp, #4
  101f0c:	e8bd8800 	pop	{fp, pc}

00101f10 <lwp_shmat>:

void* lwp_shmat(int id, void* shm_vaddr)
{
  101f10:	e92d4800 	push	{fp, lr}
  101f14:	e28db004 	add	fp, sp, #4
  101f18:	e24dd008 	sub	sp, sp, #8
  101f1c:	e50b0008 	str	r0, [fp, #-8]
  101f20:	e50b100c 	str	r1, [fp, #-12]
    return (void*)syscall(_NRSYS_shmat, id, shm_vaddr);
  101f24:	e51b200c 	ldr	r2, [fp, #-12]
  101f28:	e51b1008 	ldr	r1, [fp, #-8]
  101f2c:	e3a00039 	mov	r0, #57	; 0x39
  101f30:	eb00e9c9 	bl	13c65c <syscall>
  101f34:	e1a03000 	mov	r3, r0
}
  101f38:	e1a00003 	mov	r0, r3
  101f3c:	e24bd004 	sub	sp, fp, #4
  101f40:	e8bd8800 	pop	{fp, pc}

00101f44 <lwp_shmdt>:

int lwp_shmdt(void* shm_vaddr)
{
  101f44:	e92d4800 	push	{fp, lr}
  101f48:	e28db004 	add	fp, sp, #4
  101f4c:	e24dd008 	sub	sp, sp, #8
  101f50:	e50b0008 	str	r0, [fp, #-8]
    return (int)syscall(_NRSYS_shmdt, shm_vaddr);
  101f54:	e51b1008 	ldr	r1, [fp, #-8]
  101f58:	e3a0003a 	mov	r0, #58	; 0x3a
  101f5c:	eb00e9be 	bl	13c65c <syscall>
  101f60:	e1a03000 	mov	r3, r0
}
  101f64:	e1a00003 	mov	r0, r3
  101f68:	e24bd004 	sub	sp, fp, #4
  101f6c:	e8bd8800 	pop	{fp, pc}

00101f70 <exec>:

int exec(char *filename, int argc, char **argv, char **envp)
{
  101f70:	e92d4800 	push	{fp, lr}
  101f74:	e28db004 	add	fp, sp, #4
  101f78:	e24dd018 	sub	sp, sp, #24
  101f7c:	e50b0008 	str	r0, [fp, #-8]
  101f80:	e50b100c 	str	r1, [fp, #-12]
  101f84:	e50b2010 	str	r2, [fp, #-16]
  101f88:	e50b3014 	str	r3, [fp, #-20]	; 0xffffffec
    return (int)syscall(_NRSYS_exec, filename, argc, argv, envp);
  101f8c:	e51b3014 	ldr	r3, [fp, #-20]	; 0xffffffec
  101f90:	e58d3000 	str	r3, [sp]
  101f94:	e51b3010 	ldr	r3, [fp, #-16]
  101f98:	e51b200c 	ldr	r2, [fp, #-12]
  101f9c:	e51b1008 	ldr	r1, [fp, #-8]
  101fa0:	e3a0000d 	mov	r0, #13
  101fa4:	eb00e9ac 	bl	13c65c <syscall>
  101fa8:	e1a03000 	mov	r3, r0
}
  101fac:	e1a00003 	mov	r0, r3
  101fb0:	e24bd004 	sub	sp, fp, #4
  101fb4:	e8bd8800 	pop	{fp, pc}

00101fb8 <lwp_kill>:

int lwp_kill(pid_t pid, int sig)
{
  101fb8:	e92d4800 	push	{fp, lr}
  101fbc:	e28db004 	add	fp, sp, #4
  101fc0:	e24dd008 	sub	sp, sp, #8
  101fc4:	e50b0008 	str	r0, [fp, #-8]
  101fc8:	e50b100c 	str	r1, [fp, #-12]
    return (int)syscall(_NRSYS_kill, pid, sig);
  101fcc:	e51b200c 	ldr	r2, [fp, #-12]
  101fd0:	e51b1008 	ldr	r1, [fp, #-8]
  101fd4:	e3a0000e 	mov	r0, #14
  101fd8:	eb00e99f 	bl	13c65c <syscall>
  101fdc:	e1a03000 	mov	r3, r0
}
  101fe0:	e1a00003 	mov	r0, r3
  101fe4:	e24bd004 	sub	sp, fp, #4
  101fe8:	e8bd8800 	pop	{fp, pc}

00101fec <lwp_tkill>:

int lwp_tkill(int tid, int sig)
{
  101fec:	e92d4800 	push	{fp, lr}
  101ff0:	e28db004 	add	fp, sp, #4
  101ff4:	e24dd008 	sub	sp, sp, #8
  101ff8:	e50b0008 	str	r0, [fp, #-8]
  101ffc:	e50b100c 	str	r1, [fp, #-12]
    return (int)syscall(_NRSYS_tkill, tid, sig);
  102000:	e51b200c 	ldr	r2, [fp, #-12]
  102004:	e51b1008 	ldr	r1, [fp, #-8]
  102008:	e3a00069 	mov	r0, #105	; 0x69
  10200c:	eb00e992 	bl	13c65c <syscall>
  102010:	e1a03000 	mov	r3, r0
}
  102014:	e1a00003 	mov	r0, r3
  102018:	e24bd004 	sub	sp, fp, #4
  10201c:	e8bd8800 	pop	{fp, pc}

00102020 <waitpid>:

pid_t waitpid(pid_t pid, int *status, int options)
{
  102020:	e92d4800 	push	{fp, lr}
  102024:	e28db004 	add	fp, sp, #4
  102028:	e24dd010 	sub	sp, sp, #16
  10202c:	e50b0008 	str	r0, [fp, #-8]
  102030:	e50b100c 	str	r1, [fp, #-12]
  102034:	e50b2010 	str	r2, [fp, #-16]
    return (int)syscall(_NRSYS_waitpid, pid, status, options);
  102038:	e51b3010 	ldr	r3, [fp, #-16]
  10203c:	e51b200c 	ldr	r2, [fp, #-12]
  102040:	e51b1008 	ldr	r1, [fp, #-8]
  102044:	e3a0006e 	mov	r0, #110	; 0x6e
  102048:	eb00e983 	bl	13c65c <syscall>
  10204c:	e1a03000 	mov	r3, r0
}
  102050:	e1a00003 	mov	r0, r3
  102054:	e24bd004 	sub	sp, fp, #4
  102058:	e8bd8800 	pop	{fp, pc}

0010205c <rt_get_errno>:

rt_err_t rt_get_errno(void)
{
  10205c:	e92d4800 	push	{fp, lr}
  102060:	e28db004 	add	fp, sp, #4
    return (rt_err_t)syscall(_NRSYS_rt_get_errno);
  102064:	e3a0007a 	mov	r0, #122	; 0x7a
  102068:	eb00e97b 	bl	13c65c <syscall>
  10206c:	e1a03000 	mov	r3, r0
}
  102070:	e1a00003 	mov	r0, r3
  102074:	e8bd8800 	pop	{fp, pc}

00102078 <rt_thread_find>:
#include <pthread.h>

void __pthread_init_run(void (*enter)(void *parameter), void *parameter);

rt_thread_t rt_thread_find(char *name)
{
  102078:	e92d4800 	push	{fp, lr}
  10207c:	e28db004 	add	fp, sp, #4
  102080:	e24dd008 	sub	sp, sp, #8
  102084:	e50b0008 	str	r0, [fp, #-8]
    return (rt_thread_t)syscall(_NRSYS_rt_thread_find, name);
  102088:	e51b1008 	ldr	r1, [fp, #-8]
  10208c:	e3a00044 	mov	r0, #68	; 0x44
  102090:	eb00e971 	bl	13c65c <syscall>
  102094:	e1a03000 	mov	r3, r0
}
  102098:	e1a00003 	mov	r0, r3
  10209c:	e24bd004 	sub	sp, fp, #4
  1020a0:	e8bd8800 	pop	{fp, pc}

001020a4 <rt_thread_user_entry>:
    void (*entry)(void *parameter);
    void *parameter;
};

static void rt_thread_user_entry(void *arg)
{
  1020a4:	e92d4800 	push	{fp, lr}
  1020a8:	e28db004 	add	fp, sp, #4
  1020ac:	e24dd018 	sub	sp, sp, #24
  1020b0:	e50b0018 	str	r0, [fp, #-24]	; 0xffffffe8
    struct rt_thread_startup_ucontext *ucontext;
    void (*entry)(void *parameter);
    void *parameter;

    ucontext = (struct rt_thread_startup_ucontext *)arg;
  1020b4:	e51b3018 	ldr	r3, [fp, #-24]	; 0xffffffe8
  1020b8:	e50b3008 	str	r3, [fp, #-8]
    entry = ucontext->entry;
  1020bc:	e51b3008 	ldr	r3, [fp, #-8]
  1020c0:	e5933000 	ldr	r3, [r3]
  1020c4:	e50b300c 	str	r3, [fp, #-12]
    parameter = ucontext->parameter;
  1020c8:	e51b3008 	ldr	r3, [fp, #-8]
  1020cc:	e5933004 	ldr	r3, [r3, #4]
  1020d0:	e50b3010 	str	r3, [fp, #-16]
    rt_free(ucontext);
  1020d4:	e51b0008 	ldr	r0, [fp, #-8]
  1020d8:	eb0003b7 	bl	102fbc <rt_free>

    __pthread_init_run(entry, parameter);
  1020dc:	e51b1010 	ldr	r1, [fp, #-16]
  1020e0:	e51b000c 	ldr	r0, [fp, #-12]
  1020e4:	eb010338 	bl	142dcc <__pthread_init_run>
}
  1020e8:	e320f000 	nop	{0}
  1020ec:	e24bd004 	sub	sp, fp, #4
  1020f0:	e8bd8800 	pop	{fp, pc}

001020f4 <rt_thread_create>:
        void (*entry)(void *parameter),
        void       *parameter,
        rt_uint32_t stack_size,
        rt_uint8_t  priority,
        rt_uint32_t tick)
{
  1020f4:	e92d4800 	push	{fp, lr}
  1020f8:	e28db004 	add	fp, sp, #4
  1020fc:	e24dd030 	sub	sp, sp, #48	; 0x30
  102100:	e50b0028 	str	r0, [fp, #-40]	; 0xffffffd8
  102104:	e50b102c 	str	r1, [fp, #-44]	; 0xffffffd4
  102108:	e50b2030 	str	r2, [fp, #-48]	; 0xffffffd0
  10210c:	e50b3034 	str	r3, [fp, #-52]	; 0xffffffcc
    rt_thread_t thread;
    void * arg[] = {(void *)name, (void*)entry, (void*)parameter, (void*)(size_t)stack_size, (void*)(size_t)priority, (void*)(size_t)tick};
  102110:	e51b3028 	ldr	r3, [fp, #-40]	; 0xffffffd8
  102114:	e50b3024 	str	r3, [fp, #-36]	; 0xffffffdc
  102118:	e51b302c 	ldr	r3, [fp, #-44]	; 0xffffffd4
  10211c:	e50b3020 	str	r3, [fp, #-32]	; 0xffffffe0
  102120:	e51b3030 	ldr	r3, [fp, #-48]	; 0xffffffd0
  102124:	e50b301c 	str	r3, [fp, #-28]	; 0xffffffe4
  102128:	e51b3034 	ldr	r3, [fp, #-52]	; 0xffffffcc
  10212c:	e50b3018 	str	r3, [fp, #-24]	; 0xffffffe8
  102130:	e5db3004 	ldrb	r3, [fp, #4]
  102134:	e50b3014 	str	r3, [fp, #-20]	; 0xffffffec
  102138:	e59b3008 	ldr	r3, [fp, #8]
  10213c:	e50b3010 	str	r3, [fp, #-16]
    struct rt_thread_startup_ucontext *ucontext;

    ucontext = rt_malloc(sizeof *ucontext);
  102140:	e3a00008 	mov	r0, #8
  102144:	eb000392 	bl	102f94 <rt_malloc>
  102148:	e50b0008 	str	r0, [fp, #-8]
    if (!ucontext)
  10214c:	e51b3008 	ldr	r3, [fp, #-8]
  102150:	e3530000 	cmp	r3, #0
  102154:	1a000001 	bne	102160 <rt_thread_create+0x6c>
    {
        return RT_NULL;
  102158:	e3a03000 	mov	r3, #0
  10215c:	ea000016 	b	1021bc <rt_thread_create+0xc8>
    }
    ucontext->entry = entry;
  102160:	e51b3008 	ldr	r3, [fp, #-8]
  102164:	e51b202c 	ldr	r2, [fp, #-44]	; 0xffffffd4
  102168:	e5832000 	str	r2, [r3]
    ucontext->parameter = parameter;
  10216c:	e51b3008 	ldr	r3, [fp, #-8]
  102170:	e51b2030 	ldr	r2, [fp, #-48]	; 0xffffffd0
  102174:	e5832004 	str	r2, [r3, #4]
    arg[1] = rt_thread_user_entry;
  102178:	e30230a4 	movw	r3, #8356	; 0x20a4
  10217c:	e3403010 	movt	r3, #16
  102180:	e50b3020 	str	r3, [fp, #-32]	; 0xffffffe0
    arg[2] = ucontext;
  102184:	e51b3008 	ldr	r3, [fp, #-8]
  102188:	e50b301c 	str	r3, [fp, #-28]	; 0xffffffe4

    thread = (rt_thread_t)syscall(_NRSYS_thread_create, arg);
  10218c:	e24b3024 	sub	r3, fp, #36	; 0x24
  102190:	e1a01003 	mov	r1, r3
  102194:	e3a00028 	mov	r0, #40	; 0x28
  102198:	eb00e92f 	bl	13c65c <syscall>
  10219c:	e1a03000 	mov	r3, r0
  1021a0:	e50b300c 	str	r3, [fp, #-12]
    if (!thread)
  1021a4:	e51b300c 	ldr	r3, [fp, #-12]
  1021a8:	e3530000 	cmp	r3, #0
  1021ac:	1a000001 	bne	1021b8 <rt_thread_create+0xc4>
    {
        rt_free(ucontext);
  1021b0:	e51b0008 	ldr	r0, [fp, #-8]
  1021b4:	eb000380 	bl	102fbc <rt_free>
    }
    return thread;
  1021b8:	e51b300c 	ldr	r3, [fp, #-12]
}
  1021bc:	e1a00003 	mov	r0, r3
  1021c0:	e24bd004 	sub	sp, fp, #4
  1021c4:	e8bd8800 	pop	{fp, pc}

001021c8 <rt_thread_startup>:

rt_err_t rt_thread_startup(rt_thread_t thread)
{
  1021c8:	e92d4800 	push	{fp, lr}
  1021cc:	e28db004 	add	fp, sp, #4
  1021d0:	e24dd008 	sub	sp, sp, #8
  1021d4:	e50b0008 	str	r0, [fp, #-8]
    return syscall(_NRSYS_thread_startup, thread);
  1021d8:	e51b1008 	ldr	r1, [fp, #-8]
  1021dc:	e3a0002a 	mov	r0, #42	; 0x2a
  1021e0:	eb00e91d 	bl	13c65c <syscall>
  1021e4:	e1a03000 	mov	r3, r0
}
  1021e8:	e1a00003 	mov	r0, r3
  1021ec:	e24bd004 	sub	sp, fp, #4
  1021f0:	e8bd8800 	pop	{fp, pc}

001021f4 <rt_thread_self>:

rt_thread_t rt_thread_self(void)
{
  1021f4:	e92d4800 	push	{fp, lr}
  1021f8:	e28db004 	add	fp, sp, #4
    return (rt_thread_t)syscall(_NRSYS_thread_self);
  1021fc:	e3a0002b 	mov	r0, #43	; 0x2b
  102200:	eb00e915 	bl	13c65c <syscall>
  102204:	e1a03000 	mov	r3, r0
}
  102208:	e1a00003 	mov	r0, r3
  10220c:	e8bd8800 	pop	{fp, pc}

00102210 <rt_thread_delete>:

rt_err_t rt_thread_delete(rt_thread_t thread)
{
  102210:	e92d4800 	push	{fp, lr}
  102214:	e28db004 	add	fp, sp, #4
  102218:	e24dd008 	sub	sp, sp, #8
  10221c:	e50b0008 	str	r0, [fp, #-8]
    return syscall(_NRSYS_thread_delete, thread);
  102220:	e51b1008 	ldr	r1, [fp, #-8]
  102224:	e3a00029 	mov	r0, #41	; 0x29
  102228:	eb00e90b 	bl	13c65c <syscall>
  10222c:	e1a03000 	mov	r3, r0
}
  102230:	e1a00003 	mov	r0, r3
  102234:	e24bd004 	sub	sp, fp, #4
  102238:	e8bd8800 	pop	{fp, pc}

0010223c <rt_enter_critical>:

void rt_enter_critical(void)
{
  10223c:	e92d4800 	push	{fp, lr}
  102240:	e28db004 	add	fp, sp, #4
    syscall(_NRSYS_enter_critical);
  102244:	e3a00032 	mov	r0, #50	; 0x32
  102248:	eb00e903 	bl	13c65c <syscall>
}
  10224c:	e320f000 	nop	{0}
  102250:	e8bd8800 	pop	{fp, pc}

00102254 <rt_exit_critical>:

void rt_exit_critical(void)
{
  102254:	e92d4800 	push	{fp, lr}
  102258:	e28db004 	add	fp, sp, #4
    syscall(_NRSYS_exit_critical);
  10225c:	e3a00033 	mov	r0, #51	; 0x33
  102260:	eb00e8fd 	bl	13c65c <syscall>
}
  102264:	e320f000 	nop	{0}
  102268:	e8bd8800 	pop	{fp, pc}

0010226c <cacheflush>:

int cacheflush(void *addr, int size, int cache)
{
  10226c:	e92d4800 	push	{fp, lr}
  102270:	e28db004 	add	fp, sp, #4
  102274:	e24dd010 	sub	sp, sp, #16
  102278:	e50b0008 	str	r0, [fp, #-8]
  10227c:	e50b100c 	str	r1, [fp, #-12]
  102280:	e50b2010 	str	r2, [fp, #-16]
    return syscall(_NRSYS_cacheflush, addr, size, cache);
  102284:	e51b3010 	ldr	r3, [fp, #-16]
  102288:	e51b200c 	ldr	r2, [fp, #-12]
  10228c:	e51b1008 	ldr	r1, [fp, #-8]
  102290:	e3a0006b 	mov	r0, #107	; 0x6b
  102294:	eb00e8f0 	bl	13c65c <syscall>
  102298:	e1a03000 	mov	r3, r0
}
  10229c:	e1a00003 	mov	r0, r3
  1022a0:	e24bd004 	sub	sp, fp, #4
  1022a4:	e8bd8800 	pop	{fp, pc}

001022a8 <rt_list_init>:
 * @brief initialize a list
 *
 * @param l list to be initialized
 */
rt_inline void rt_list_init(rt_list_t *l)
{
  1022a8:	e52db004 	push	{fp}		; (str fp, [sp, #-4]!)
  1022ac:	e28db000 	add	fp, sp, #0
  1022b0:	e24dd00c 	sub	sp, sp, #12
  1022b4:	e50b0008 	str	r0, [fp, #-8]
    l->next = l->prev = l;
  1022b8:	e51b3008 	ldr	r3, [fp, #-8]
  1022bc:	e51b2008 	ldr	r2, [fp, #-8]
  1022c0:	e5832004 	str	r2, [r3, #4]
  1022c4:	e51b3008 	ldr	r3, [fp, #-8]
  1022c8:	e5932004 	ldr	r2, [r3, #4]
  1022cc:	e51b3008 	ldr	r3, [fp, #-8]
  1022d0:	e5832000 	str	r2, [r3]
}
  1022d4:	e320f000 	nop	{0}
  1022d8:	e28bd000 	add	sp, fp, #0
  1022dc:	e49db004 	pop	{fp}		; (ldr fp, [sp], #4)
  1022e0:	e12fff1e 	bx	lr

001022e4 <rt_list_insert_after>:
 *
 * @param l list to insert it
 * @param n new node to be inserted
 */
rt_inline void rt_list_insert_after(rt_list_t *l, rt_list_t *n)
{
  1022e4:	e52db004 	push	{fp}		; (str fp, [sp, #-4]!)
  1022e8:	e28db000 	add	fp, sp, #0
  1022ec:	e24dd00c 	sub	sp, sp, #12
  1022f0:	e50b0008 	str	r0, [fp, #-8]
  1022f4:	e50b100c 	str	r1, [fp, #-12]
    l->next->prev = n;
  1022f8:	e51b3008 	ldr	r3, [fp, #-8]
  1022fc:	e5933000 	ldr	r3, [r3]
  102300:	e51b200c 	ldr	r2, [fp, #-12]
  102304:	e5832004 	str	r2, [r3, #4]
    n->next = l->next;
  102308:	e51b3008 	ldr	r3, [fp, #-8]
  10230c:	e5932000 	ldr	r2, [r3]
  102310:	e51b300c 	ldr	r3, [fp, #-12]
  102314:	e5832000 	str	r2, [r3]

    l->next = n;
  102318:	e51b3008 	ldr	r3, [fp, #-8]
  10231c:	e51b200c 	ldr	r2, [fp, #-12]
  102320:	e5832000 	str	r2, [r3]
    n->prev = l;
  102324:	e51b300c 	ldr	r3, [fp, #-12]
  102328:	e51b2008 	ldr	r2, [fp, #-8]
  10232c:	e5832004 	str	r2, [r3, #4]
}
  102330:	e320f000 	nop	{0}
  102334:	e28bd000 	add	sp, fp, #0
  102338:	e49db004 	pop	{fp}		; (ldr fp, [sp], #4)
  10233c:	e12fff1e 	bx	lr

00102340 <rt_list_remove>:
/**
 * @brief remove node from list.
 * @param n the node to remove from the list.
 */
rt_inline void rt_list_remove(rt_list_t *n)
{
  102340:	e52db004 	push	{fp}		; (str fp, [sp, #-4]!)
  102344:	e28db000 	add	fp, sp, #0
  102348:	e24dd00c 	sub	sp, sp, #12
  10234c:	e50b0008 	str	r0, [fp, #-8]
    n->next->prev = n->prev;
  102350:	e51b3008 	ldr	r3, [fp, #-8]
  102354:	e5933000 	ldr	r3, [r3]
  102358:	e51b2008 	ldr	r2, [fp, #-8]
  10235c:	e5922004 	ldr	r2, [r2, #4]
  102360:	e5832004 	str	r2, [r3, #4]
    n->prev->next = n->next;
  102364:	e51b3008 	ldr	r3, [fp, #-8]
  102368:	e5933004 	ldr	r3, [r3, #4]
  10236c:	e51b2008 	ldr	r2, [fp, #-8]
  102370:	e5922000 	ldr	r2, [r2]
  102374:	e5832000 	str	r2, [r3]

    n->next = n->prev = n;
  102378:	e51b3008 	ldr	r3, [fp, #-8]
  10237c:	e51b2008 	ldr	r2, [fp, #-8]
  102380:	e5832004 	str	r2, [r3, #4]
  102384:	e51b3008 	ldr	r3, [fp, #-8]
  102388:	e5932004 	ldr	r2, [r3, #4]
  10238c:	e51b3008 	ldr	r3, [fp, #-8]
  102390:	e5832000 	str	r2, [r3]
}
  102394:	e320f000 	nop	{0}
  102398:	e28bd000 	add	sp, fp, #0
  10239c:	e49db004 	pop	{fp}		; (ldr fp, [sp], #4)
  1023a0:	e12fff1e 	bx	lr

001023a4 <rt_list_isempty>:
/**
 * @brief tests whether a list is empty
 * @param l the list to test.
 */
rt_inline int rt_list_isempty(const rt_list_t *l)
{
  1023a4:	e52db004 	push	{fp}		; (str fp, [sp, #-4]!)
  1023a8:	e28db000 	add	fp, sp, #0
  1023ac:	e24dd00c 	sub	sp, sp, #12
  1023b0:	e50b0008 	str	r0, [fp, #-8]
    return l->next == l;
  1023b4:	e51b3008 	ldr	r3, [fp, #-8]
  1023b8:	e5933000 	ldr	r3, [r3]
  1023bc:	e51b2008 	ldr	r2, [fp, #-8]
  1023c0:	e1520003 	cmp	r2, r3
  1023c4:	03a03001 	moveq	r3, #1
  1023c8:	13a03000 	movne	r3, #0
  1023cc:	e6ef3073 	uxtb	r3, r3
}
  1023d0:	e1a00003 	mov	r0, r3
  1023d4:	e28bd000 	add	sp, fp, #0
  1023d8:	e49db004 	pop	{fp}		; (ldr fp, [sp], #4)
  1023dc:	e12fff1e 	bx	lr

001023e0 <_rt_timer_init>:
static void _rt_timer_init(rt_timer_t timer,
                           void (*timeout)(void *parameter),
                           void      *parameter,
                           rt_tick_t  time,
                           rt_uint8_t flag)
{
  1023e0:	e92d4800 	push	{fp, lr}
  1023e4:	e28db004 	add	fp, sp, #4
  1023e8:	e24dd018 	sub	sp, sp, #24
  1023ec:	e50b0010 	str	r0, [fp, #-16]
  1023f0:	e50b1014 	str	r1, [fp, #-20]	; 0xffffffec
  1023f4:	e50b2018 	str	r2, [fp, #-24]	; 0xffffffe8
  1023f8:	e50b301c 	str	r3, [fp, #-28]	; 0xffffffe4
    int i;

    /* set flag */
    timer->parent.flag  = flag;
  1023fc:	e51b3010 	ldr	r3, [fp, #-16]
  102400:	e5db2004 	ldrb	r2, [fp, #4]
  102404:	e5c32009 	strb	r2, [r3, #9]

    /* set deactivated */
    timer->parent.flag &= ~RT_TIMER_FLAG_ACTIVATED;
  102408:	e51b3010 	ldr	r3, [fp, #-16]
  10240c:	e5d33009 	ldrb	r3, [r3, #9]
  102410:	e3c33001 	bic	r3, r3, #1
  102414:	e6ef2073 	uxtb	r2, r3
  102418:	e51b3010 	ldr	r3, [fp, #-16]
  10241c:	e5c32009 	strb	r2, [r3, #9]

    timer->timeout_func = timeout;
  102420:	e51b3010 	ldr	r3, [fp, #-16]
  102424:	e51b2014 	ldr	r2, [fp, #-20]	; 0xffffffec
  102428:	e583201c 	str	r2, [r3, #28]
    timer->parameter    = parameter;
  10242c:	e51b3010 	ldr	r3, [fp, #-16]
  102430:	e51b2018 	ldr	r2, [fp, #-24]	; 0xffffffe8
  102434:	e5832020 	str	r2, [r3, #32]

    timer->timeout_tick = 0;
  102438:	e51b3010 	ldr	r3, [fp, #-16]
  10243c:	e3a02000 	mov	r2, #0
  102440:	e5832028 	str	r2, [r3, #40]	; 0x28
    timer->init_tick    = time;
  102444:	e51b3010 	ldr	r3, [fp, #-16]
  102448:	e51b201c 	ldr	r2, [fp, #-28]	; 0xffffffe4
  10244c:	e5832024 	str	r2, [r3, #36]	; 0x24

    /* initialize timer list */
    for (i = 0; i < RT_TIMER_SKIP_LIST_LEVEL; i++)
  102450:	e3a03000 	mov	r3, #0
  102454:	e50b3008 	str	r3, [fp, #-8]
  102458:	ea00000a 	b	102488 <_rt_timer_init+0xa8>
    {
        rt_list_init(&(timer->row[i]));
  10245c:	e51b3008 	ldr	r3, [fp, #-8]
  102460:	e2833002 	add	r3, r3, #2
  102464:	e1a03183 	lsl	r3, r3, #3
  102468:	e51b2010 	ldr	r2, [fp, #-16]
  10246c:	e0823003 	add	r3, r2, r3
  102470:	e2833004 	add	r3, r3, #4
  102474:	e1a00003 	mov	r0, r3
  102478:	ebffff8a 	bl	1022a8 <rt_list_init>
    for (i = 0; i < RT_TIMER_SKIP_LIST_LEVEL; i++)
  10247c:	e51b3008 	ldr	r3, [fp, #-8]
  102480:	e2833001 	add	r3, r3, #1
  102484:	e50b3008 	str	r3, [fp, #-8]
  102488:	e51b3008 	ldr	r3, [fp, #-8]
  10248c:	e3530000 	cmp	r3, #0
  102490:	dafffff1 	ble	10245c <_rt_timer_init+0x7c>
    }
}
  102494:	e320f000 	nop	{0}
  102498:	e24bd004 	sub	sp, fp, #4
  10249c:	e8bd8800 	pop	{fp, pc}

001024a0 <rt_timer_list_next_timeout>:

/* the fist timer always in the last row */
static rt_tick_t rt_timer_list_next_timeout(rt_list_t timer_list[])
{
  1024a0:	e92d4800 	push	{fp, lr}
  1024a4:	e28db004 	add	fp, sp, #4
  1024a8:	e24dd010 	sub	sp, sp, #16
  1024ac:	e50b0010 	str	r0, [fp, #-16]
    struct rt_timer *timer;

    if (rt_list_isempty(&timer_list[RT_TIMER_SKIP_LIST_LEVEL - 1]))
  1024b0:	e51b0010 	ldr	r0, [fp, #-16]
  1024b4:	ebffffba 	bl	1023a4 <rt_list_isempty>
  1024b8:	e1a03000 	mov	r3, r0
  1024bc:	e3530000 	cmp	r3, #0
  1024c0:	0a000001 	beq	1024cc <rt_timer_list_next_timeout+0x2c>
        return RT_TICK_MAX;
  1024c4:	e3e03000 	mvn	r3, #0
  1024c8:	ea000005 	b	1024e4 <rt_timer_list_next_timeout+0x44>

    timer = rt_list_entry(timer_list[RT_TIMER_SKIP_LIST_LEVEL - 1].next,
  1024cc:	e51b3010 	ldr	r3, [fp, #-16]
  1024d0:	e5933000 	ldr	r3, [r3]
  1024d4:	e2433014 	sub	r3, r3, #20
  1024d8:	e50b3008 	str	r3, [fp, #-8]
                          struct rt_timer, row[RT_TIMER_SKIP_LIST_LEVEL - 1]);

    return timer->timeout_tick;
  1024dc:	e51b3008 	ldr	r3, [fp, #-8]
  1024e0:	e5933028 	ldr	r3, [r3, #40]	; 0x28
}
  1024e4:	e1a00003 	mov	r0, r3
  1024e8:	e24bd004 	sub	sp, fp, #4
  1024ec:	e8bd8800 	pop	{fp, pc}

001024f0 <_rt_timer_remove>:

rt_inline void _rt_timer_remove(rt_timer_t timer)
{
  1024f0:	e92d4800 	push	{fp, lr}
  1024f4:	e28db004 	add	fp, sp, #4
  1024f8:	e24dd010 	sub	sp, sp, #16
  1024fc:	e50b0010 	str	r0, [fp, #-16]
    int i;

    for (i = 0; i < RT_TIMER_SKIP_LIST_LEVEL; i++)
  102500:	e3a03000 	mov	r3, #0
  102504:	e50b3008 	str	r3, [fp, #-8]
  102508:	ea00000a 	b	102538 <_rt_timer_remove+0x48>
    {
        rt_list_remove(&timer->row[i]);
  10250c:	e51b3008 	ldr	r3, [fp, #-8]
  102510:	e2833002 	add	r3, r3, #2
  102514:	e1a03183 	lsl	r3, r3, #3
  102518:	e51b2010 	ldr	r2, [fp, #-16]
  10251c:	e0823003 	add	r3, r2, r3
  102520:	e2833004 	add	r3, r3, #4
  102524:	e1a00003 	mov	r0, r3
  102528:	ebffff84 	bl	102340 <rt_list_remove>
    for (i = 0; i < RT_TIMER_SKIP_LIST_LEVEL; i++)
  10252c:	e51b3008 	ldr	r3, [fp, #-8]
  102530:	e2833001 	add	r3, r3, #1
  102534:	e50b3008 	str	r3, [fp, #-8]
  102538:	e51b3008 	ldr	r3, [fp, #-8]
  10253c:	e3530000 	cmp	r3, #0
  102540:	dafffff1 	ble	10250c <_rt_timer_remove+0x1c>
    }
}
  102544:	e320f000 	nop	{0}
  102548:	e24bd004 	sub	sp, fp, #4
  10254c:	e8bd8800 	pop	{fp, pc}

00102550 <rt_timer_init>:
                   const char *name,
                   void (*timeout)(void *parameter),
                   void       *parameter,
                   rt_tick_t   time,
                   rt_uint8_t  flag)
{
  102550:	e92d4800 	push	{fp, lr}
  102554:	e28db004 	add	fp, sp, #4
  102558:	e24dd018 	sub	sp, sp, #24
  10255c:	e50b0008 	str	r0, [fp, #-8]
  102560:	e50b100c 	str	r1, [fp, #-12]
  102564:	e50b2010 	str	r2, [fp, #-16]
  102568:	e50b3014 	str	r3, [fp, #-20]	; 0xffffffec
    _rt_timer_init(timer, timeout, parameter, time, flag);
  10256c:	e5db3008 	ldrb	r3, [fp, #8]
  102570:	e58d3000 	str	r3, [sp]
  102574:	e59b3004 	ldr	r3, [fp, #4]
  102578:	e51b2014 	ldr	r2, [fp, #-20]	; 0xffffffec
  10257c:	e51b1010 	ldr	r1, [fp, #-16]
  102580:	e51b0008 	ldr	r0, [fp, #-8]
  102584:	ebffff95 	bl	1023e0 <_rt_timer_init>
}
  102588:	e320f000 	nop	{0}
  10258c:	e24bd004 	sub	sp, fp, #4
  102590:	e8bd8800 	pop	{fp, pc}

00102594 <rt_timer_detach>:
 * @param timer the static timer object
 *
 * @return the operation status, RT_EOK on OK; RT_ERROR on error
 */
rt_err_t rt_timer_detach(rt_timer_t timer)
{
  102594:	e92d4800 	push	{fp, lr}
  102598:	e28db004 	add	fp, sp, #4
  10259c:	e24dd008 	sub	sp, sp, #8
  1025a0:	e50b0008 	str	r0, [fp, #-8]

    /* make sure take mutex */
    while(rt_mutex_take(mutex, RT_WAITING_FOREVER) != RT_EOK);
  1025a4:	e320f000 	nop	{0}
  1025a8:	e30e3410 	movw	r3, #58384	; 0xe410
  1025ac:	e3403014 	movt	r3, #20
  1025b0:	e5933000 	ldr	r3, [r3]
  1025b4:	e3e01000 	mvn	r1, #0
  1025b8:	e1a00003 	mov	r0, r3
  1025bc:	ebfffa4f 	bl	100f00 <rt_mutex_take>
  1025c0:	e1a03000 	mov	r3, r0
  1025c4:	e3530000 	cmp	r3, #0
  1025c8:	1afffff6 	bne	1025a8 <rt_timer_detach+0x14>

    _rt_timer_remove(timer);
  1025cc:	e51b0008 	ldr	r0, [fp, #-8]
  1025d0:	ebffffc6 	bl	1024f0 <_rt_timer_remove>

    /* release mutex */
    rt_mutex_release(mutex);
  1025d4:	e30e3410 	movw	r3, #58384	; 0xe410
  1025d8:	e3403014 	movt	r3, #20
  1025dc:	e5933000 	ldr	r3, [r3]
  1025e0:	e1a00003 	mov	r0, r3
  1025e4:	ebfffa63 	bl	100f78 <rt_mutex_release>

    return RT_EOK;
  1025e8:	e3a03000 	mov	r3, #0
}
  1025ec:	e1a00003 	mov	r0, r3
  1025f0:	e24bd004 	sub	sp, fp, #4
  1025f4:	e8bd8800 	pop	{fp, pc}

001025f8 <rt_timer_create>:
rt_timer_t rt_timer_create(const char *name,
                           void (*timeout)(void *parameter),
                           void       *parameter,
                           rt_tick_t   time,
                           rt_uint8_t  flag)
{
  1025f8:	e92d4800 	push	{fp, lr}
  1025fc:	e28db004 	add	fp, sp, #4
  102600:	e24dd020 	sub	sp, sp, #32
  102604:	e50b0010 	str	r0, [fp, #-16]
  102608:	e50b1014 	str	r1, [fp, #-20]	; 0xffffffec
  10260c:	e50b2018 	str	r2, [fp, #-24]	; 0xffffffe8
  102610:	e50b301c 	str	r3, [fp, #-28]	; 0xffffffe4
    struct rt_timer *timer;

    /* allocate a timer object */
    timer = (struct rt_timer *)malloc(sizeof(struct rt_timer));
  102614:	e3a0002c 	mov	r0, #44	; 0x2c
  102618:	eb00ebcc 	bl	13d550 <malloc>
  10261c:	e1a03000 	mov	r3, r0
  102620:	e50b3008 	str	r3, [fp, #-8]
    if (timer == RT_NULL)
  102624:	e51b3008 	ldr	r3, [fp, #-8]
  102628:	e3530000 	cmp	r3, #0
  10262c:	1a000001 	bne	102638 <rt_timer_create+0x40>
    {
        return RT_NULL;
  102630:	e3a03000 	mov	r3, #0
  102634:	ea000007 	b	102658 <rt_timer_create+0x60>
    }

    _rt_timer_init(timer, timeout, parameter, time, flag);
  102638:	e5db3004 	ldrb	r3, [fp, #4]
  10263c:	e58d3000 	str	r3, [sp]
  102640:	e51b301c 	ldr	r3, [fp, #-28]	; 0xffffffe4
  102644:	e51b2018 	ldr	r2, [fp, #-24]	; 0xffffffe8
  102648:	e51b1014 	ldr	r1, [fp, #-20]	; 0xffffffec
  10264c:	e51b0008 	ldr	r0, [fp, #-8]
  102650:	ebffff62 	bl	1023e0 <_rt_timer_init>

    return timer;
  102654:	e51b3008 	ldr	r3, [fp, #-8]
}
  102658:	e1a00003 	mov	r0, r3
  10265c:	e24bd004 	sub	sp, fp, #4
  102660:	e8bd8800 	pop	{fp, pc}

00102664 <rt_timer_delete>:
 * @param timer the timer to be deleted
 *
 * @return the operation status, RT_EOK on OK; RT_ERROR on error
 */
rt_err_t rt_timer_delete(rt_timer_t timer)
{
  102664:	e92d4800 	push	{fp, lr}
  102668:	e28db004 	add	fp, sp, #4
  10266c:	e24dd008 	sub	sp, sp, #8
  102670:	e50b0008 	str	r0, [fp, #-8]

    /* make sure take mutex */
    while(rt_mutex_take(mutex, RT_WAITING_FOREVER) != RT_EOK);
  102674:	e320f000 	nop	{0}
  102678:	e30e3410 	movw	r3, #58384	; 0xe410
  10267c:	e3403014 	movt	r3, #20
  102680:	e5933000 	ldr	r3, [r3]
  102684:	e3e01000 	mvn	r1, #0
  102688:	e1a00003 	mov	r0, r3
  10268c:	ebfffa1b 	bl	100f00 <rt_mutex_take>
  102690:	e1a03000 	mov	r3, r0
  102694:	e3530000 	cmp	r3, #0
  102698:	1afffff6 	bne	102678 <rt_timer_delete+0x14>

    _rt_timer_remove(timer);
  10269c:	e51b0008 	ldr	r0, [fp, #-8]
  1026a0:	ebffff92 	bl	1024f0 <_rt_timer_remove>

    /*free timer object */
    free(timer);
  1026a4:	e51b0008 	ldr	r0, [fp, #-8]
  1026a8:	eb00ed64 	bl	13dc40 <free>

    /* release mutex */
    rt_mutex_release(mutex);
  1026ac:	e30e3410 	movw	r3, #58384	; 0xe410
  1026b0:	e3403014 	movt	r3, #20
  1026b4:	e5933000 	ldr	r3, [r3]
  1026b8:	e1a00003 	mov	r0, r3
  1026bc:	ebfffa2d 	bl	100f78 <rt_mutex_release>

    return RT_EOK;
  1026c0:	e3a03000 	mov	r3, #0
}
  1026c4:	e1a00003 	mov	r0, r3
  1026c8:	e24bd004 	sub	sp, fp, #4
  1026cc:	e8bd8800 	pop	{fp, pc}

001026d0 <rt_timer_start>:
 * @param timer the timer to be started
 *
 * @return the operation status, RT_EOK on OK, -RT_ERROR on error
 */
rt_err_t rt_timer_start(rt_timer_t timer)
{
  1026d0:	e92d4800 	push	{fp, lr}
  1026d4:	e28db004 	add	fp, sp, #4
  1026d8:	e24dd020 	sub	sp, sp, #32
  1026dc:	e50b0020 	str	r0, [fp, #-32]	; 0xffffffe0
    rt_list_t *row_head[RT_TIMER_SKIP_LIST_LEVEL];
    unsigned int tst_nr;
    static unsigned int random_nr;

    /* make sure take mutex */
    while(rt_mutex_take(mutex, RT_WAITING_FOREVER) != RT_EOK);
  1026e0:	e320f000 	nop	{0}
  1026e4:	e30e3410 	movw	r3, #58384	; 0xe410
  1026e8:	e3403014 	movt	r3, #20
  1026ec:	e5933000 	ldr	r3, [r3]
  1026f0:	e3e01000 	mvn	r1, #0
  1026f4:	e1a00003 	mov	r0, r3
  1026f8:	ebfffa00 	bl	100f00 <rt_mutex_take>
  1026fc:	e1a03000 	mov	r3, r0
  102700:	e3530000 	cmp	r3, #0
  102704:	1afffff6 	bne	1026e4 <rt_timer_start+0x14>
    /* remove timer from list */
    _rt_timer_remove(timer);
  102708:	e51b0020 	ldr	r0, [fp, #-32]	; 0xffffffe0
  10270c:	ebffff77 	bl	1024f0 <_rt_timer_remove>
    /* change status of timer */
    timer->parent.flag &= ~RT_TIMER_FLAG_ACTIVATED;
  102710:	e51b3020 	ldr	r3, [fp, #-32]	; 0xffffffe0
  102714:	e5d33009 	ldrb	r3, [r3, #9]
  102718:	e3c33001 	bic	r3, r3, #1
  10271c:	e6ef2073 	uxtb	r2, r3
  102720:	e51b3020 	ldr	r3, [fp, #-32]	; 0xffffffe0
  102724:	e5c32009 	strb	r2, [r3, #9]
    /* release mutex */
    rt_mutex_release(mutex);
  102728:	e30e3410 	movw	r3, #58384	; 0xe410
  10272c:	e3403014 	movt	r3, #20
  102730:	e5933000 	ldr	r3, [r3]
  102734:	e1a00003 	mov	r0, r3
  102738:	ebfffa0e 	bl	100f78 <rt_mutex_release>

    /*
     * get timeout tick,
     * the max timeout tick shall not great than RT_TICK_MAX/2
     */
    timer->timeout_tick = rt_tick_get() + timer->init_tick;
  10273c:	ebfffdc7 	bl	101e60 <rt_tick_get>
  102740:	e1a02000 	mov	r2, r0
  102744:	e51b3020 	ldr	r3, [fp, #-32]	; 0xffffffe0
  102748:	e5933024 	ldr	r3, [r3, #36]	; 0x24
  10274c:	e0822003 	add	r2, r2, r3
  102750:	e51b3020 	ldr	r3, [fp, #-32]	; 0xffffffe0
  102754:	e5832028 	str	r2, [r3, #40]	; 0x28

    /* make sure take mutex */
    while(rt_mutex_take(mutex, RT_WAITING_FOREVER) != RT_EOK);
  102758:	e320f000 	nop	{0}
  10275c:	e30e3410 	movw	r3, #58384	; 0xe410
  102760:	e3403014 	movt	r3, #20
  102764:	e5933000 	ldr	r3, [r3]
  102768:	e3e01000 	mvn	r1, #0
  10276c:	e1a00003 	mov	r0, r3
  102770:	ebfff9e2 	bl	100f00 <rt_mutex_take>
  102774:	e1a03000 	mov	r3, r0
  102778:	e3530000 	cmp	r3, #0
  10277c:	1afffff6 	bne	10275c <rt_timer_start+0x8c>

    /* insert timer to soft timer list */
    timer_list = rt_soft_timer_list;
  102780:	e30e3418 	movw	r3, #58392	; 0xe418
  102784:	e3403014 	movt	r3, #20
  102788:	e50b3010 	str	r3, [fp, #-16]

    row_head[0]  = &timer_list[0];
  10278c:	e51b3010 	ldr	r3, [fp, #-16]
  102790:	e50b301c 	str	r3, [fp, #-28]	; 0xffffffe4
    for (row_lvl = 0; row_lvl < RT_TIMER_SKIP_LIST_LEVEL; row_lvl++)
  102794:	e3a03000 	mov	r3, #0
  102798:	e50b3008 	str	r3, [fp, #-8]
  10279c:	ea000047 	b	1028c0 <rt_timer_start+0x1f0>
    {
        for (; row_head[row_lvl] != timer_list[row_lvl].prev;
             row_head[row_lvl]  = row_head[row_lvl]->next)
        {
            struct rt_timer *t;
            rt_list_t *p = row_head[row_lvl]->next;
  1027a0:	e51b3008 	ldr	r3, [fp, #-8]
  1027a4:	e1a03103 	lsl	r3, r3, #2
  1027a8:	e24b2004 	sub	r2, fp, #4
  1027ac:	e0823003 	add	r3, r2, r3
  1027b0:	e5133018 	ldr	r3, [r3, #-24]	; 0xffffffe8
  1027b4:	e5933000 	ldr	r3, [r3]
  1027b8:	e50b3014 	str	r3, [fp, #-20]	; 0xffffffec

            /* fix up the entry pointer */
            t = rt_list_entry(p, struct rt_timer, row[row_lvl]);
  1027bc:	e51b3008 	ldr	r3, [fp, #-8]
  1027c0:	e1a03183 	lsl	r3, r3, #3
  1027c4:	e2833014 	add	r3, r3, #20
  1027c8:	e2633000 	rsb	r3, r3, #0
  1027cc:	e51b2014 	ldr	r2, [fp, #-20]	; 0xffffffec
  1027d0:	e0823003 	add	r3, r2, r3
  1027d4:	e50b3018 	str	r3, [fp, #-24]	; 0xffffffe8
            /* If we have two timers that timeout at the same time, it's
             * preferred that the timer inserted early get called early.
             * So insert the new timer to the end the the some-timeout timer
             * list.
             */
            if ((t->timeout_tick - timer->timeout_tick) == 0)
  1027d8:	e51b3018 	ldr	r3, [fp, #-24]	; 0xffffffe8
  1027dc:	e5932028 	ldr	r2, [r3, #40]	; 0x28
  1027e0:	e51b3020 	ldr	r3, [fp, #-32]	; 0xffffffe0
  1027e4:	e5933028 	ldr	r3, [r3, #40]	; 0x28
  1027e8:	e1520003 	cmp	r2, r3
  1027ec:	0a000007 	beq	102810 <rt_timer_start+0x140>
            {
                continue;
            }
            else if ((t->timeout_tick - timer->timeout_tick) < RT_TICK_MAX / 2)
  1027f0:	e51b3018 	ldr	r3, [fp, #-24]	; 0xffffffe8
  1027f4:	e5932028 	ldr	r2, [r3, #40]	; 0x28
  1027f8:	e51b3020 	ldr	r3, [fp, #-32]	; 0xffffffe0
  1027fc:	e5933028 	ldr	r3, [r3, #40]	; 0x28
  102800:	e0423003 	sub	r3, r2, r3
  102804:	e373010a 	cmn	r3, #-2147483646	; 0x80000002
  102808:	9a000019 	bls	102874 <rt_timer_start+0x1a4>
  10280c:	ea000000 	b	102814 <rt_timer_start+0x144>
                continue;
  102810:	e320f000 	nop	{0}
             row_head[row_lvl]  = row_head[row_lvl]->next)
  102814:	e51b3008 	ldr	r3, [fp, #-8]
  102818:	e1a03103 	lsl	r3, r3, #2
  10281c:	e24b2004 	sub	r2, fp, #4
  102820:	e0823003 	add	r3, r2, r3
  102824:	e5133018 	ldr	r3, [r3, #-24]	; 0xffffffe8
  102828:	e5932000 	ldr	r2, [r3]
  10282c:	e51b3008 	ldr	r3, [fp, #-8]
  102830:	e1a03103 	lsl	r3, r3, #2
  102834:	e24b1004 	sub	r1, fp, #4
  102838:	e0813003 	add	r3, r1, r3
  10283c:	e5032018 	str	r2, [r3, #-24]	; 0xffffffe8
        for (; row_head[row_lvl] != timer_list[row_lvl].prev;
  102840:	e51b3008 	ldr	r3, [fp, #-8]
  102844:	e1a03103 	lsl	r3, r3, #2
  102848:	e24b2004 	sub	r2, fp, #4
  10284c:	e0823003 	add	r3, r2, r3
  102850:	e5132018 	ldr	r2, [r3, #-24]	; 0xffffffe8
  102854:	e51b3008 	ldr	r3, [fp, #-8]
  102858:	e1a03183 	lsl	r3, r3, #3
  10285c:	e51b1010 	ldr	r1, [fp, #-16]
  102860:	e0813003 	add	r3, r1, r3
  102864:	e5933004 	ldr	r3, [r3, #4]
  102868:	e1520003 	cmp	r2, r3
  10286c:	1affffcb 	bne	1027a0 <rt_timer_start+0xd0>
  102870:	ea000000 	b	102878 <rt_timer_start+0x1a8>
            {
                break;
  102874:	e320f000 	nop	{0}
            }
        }
        if (row_lvl != RT_TIMER_SKIP_LIST_LEVEL - 1)
  102878:	e51b3008 	ldr	r3, [fp, #-8]
  10287c:	e3530000 	cmp	r3, #0
  102880:	0a00000b 	beq	1028b4 <rt_timer_start+0x1e4>
            row_head[row_lvl + 1] = row_head[row_lvl] + 1;
  102884:	e51b3008 	ldr	r3, [fp, #-8]
  102888:	e1a03103 	lsl	r3, r3, #2
  10288c:	e24b2004 	sub	r2, fp, #4
  102890:	e0823003 	add	r3, r2, r3
  102894:	e5132018 	ldr	r2, [r3, #-24]	; 0xffffffe8
  102898:	e51b3008 	ldr	r3, [fp, #-8]
  10289c:	e2833001 	add	r3, r3, #1
  1028a0:	e2822008 	add	r2, r2, #8
  1028a4:	e1a03103 	lsl	r3, r3, #2
  1028a8:	e24b1004 	sub	r1, fp, #4
  1028ac:	e0813003 	add	r3, r1, r3
  1028b0:	e5032018 	str	r2, [r3, #-24]	; 0xffffffe8
    for (row_lvl = 0; row_lvl < RT_TIMER_SKIP_LIST_LEVEL; row_lvl++)
  1028b4:	e51b3008 	ldr	r3, [fp, #-8]
  1028b8:	e2833001 	add	r3, r3, #1
  1028bc:	e50b3008 	str	r3, [fp, #-8]
  1028c0:	e51b3008 	ldr	r3, [fp, #-8]
  1028c4:	e3530000 	cmp	r3, #0
  1028c8:	0affffdc 	beq	102840 <rt_timer_start+0x170>

    /* Interestingly, this super simple timer insert counter works very very
     * well on distributing the list height uniformly. By means of "very very
     * well", I mean it beats the randomness of timer->timeout_tick very easily
     * (actually, the timeout_tick is not random and easy to be attacked). */
    random_nr++;
  1028cc:	e30e3420 	movw	r3, #58400	; 0xe420
  1028d0:	e3403014 	movt	r3, #20
  1028d4:	e5933000 	ldr	r3, [r3]
  1028d8:	e2832001 	add	r2, r3, #1
  1028dc:	e30e3420 	movw	r3, #58400	; 0xe420
  1028e0:	e3403014 	movt	r3, #20
  1028e4:	e5832000 	str	r2, [r3]
    tst_nr = random_nr;
  1028e8:	e30e3420 	movw	r3, #58400	; 0xe420
  1028ec:	e3403014 	movt	r3, #20
  1028f0:	e5933000 	ldr	r3, [r3]
  1028f4:	e50b300c 	str	r3, [fp, #-12]

    rt_list_insert_after(row_head[RT_TIMER_SKIP_LIST_LEVEL - 1],
  1028f8:	e51b201c 	ldr	r2, [fp, #-28]	; 0xffffffe4
  1028fc:	e51b3020 	ldr	r3, [fp, #-32]	; 0xffffffe0
  102900:	e2833014 	add	r3, r3, #20
  102904:	e1a01003 	mov	r1, r3
  102908:	e1a00002 	mov	r0, r2
  10290c:	ebfffe74 	bl	1022e4 <rt_list_insert_after>
                         &(timer->row[RT_TIMER_SKIP_LIST_LEVEL - 1]));
    for (row_lvl = 2; row_lvl <= RT_TIMER_SKIP_LIST_LEVEL; row_lvl++)
  102910:	e3a03002 	mov	r3, #2
  102914:	e50b3008 	str	r3, [fp, #-8]
  102918:	ea000018 	b	102980 <rt_timer_start+0x2b0>
    {
        if (!(tst_nr & RT_TIMER_SKIP_LIST_MASK))
  10291c:	e51b300c 	ldr	r3, [fp, #-12]
  102920:	e2033003 	and	r3, r3, #3
  102924:	e3530000 	cmp	r3, #0
  102928:	1a000018 	bne	102990 <rt_timer_start+0x2c0>
            rt_list_insert_after(row_head[RT_TIMER_SKIP_LIST_LEVEL - row_lvl],
  10292c:	e51b3008 	ldr	r3, [fp, #-8]
  102930:	e2633001 	rsb	r3, r3, #1
  102934:	e1a03103 	lsl	r3, r3, #2
  102938:	e24b2004 	sub	r2, fp, #4
  10293c:	e0823003 	add	r3, r2, r3
  102940:	e5130018 	ldr	r0, [r3, #-24]	; 0xffffffe8
                                 &(timer->row[RT_TIMER_SKIP_LIST_LEVEL - row_lvl]));
  102944:	e51b3008 	ldr	r3, [fp, #-8]
  102948:	e2633001 	rsb	r3, r3, #1
            rt_list_insert_after(row_head[RT_TIMER_SKIP_LIST_LEVEL - row_lvl],
  10294c:	e2833002 	add	r3, r3, #2
  102950:	e1a03183 	lsl	r3, r3, #3
  102954:	e51b2020 	ldr	r2, [fp, #-32]	; 0xffffffe0
  102958:	e0823003 	add	r3, r2, r3
  10295c:	e2833004 	add	r3, r3, #4
  102960:	e1a01003 	mov	r1, r3
  102964:	ebfffe5e 	bl	1022e4 <rt_list_insert_after>
        else
            break;
        /* Shift over the bits we have tested. Works well with 1 bit and 2
         * bits. */
        tst_nr >>= (RT_TIMER_SKIP_LIST_MASK + 1) >> 1;
  102968:	e51b300c 	ldr	r3, [fp, #-12]
  10296c:	e1a03123 	lsr	r3, r3, #2
  102970:	e50b300c 	str	r3, [fp, #-12]
    for (row_lvl = 2; row_lvl <= RT_TIMER_SKIP_LIST_LEVEL; row_lvl++)
  102974:	e51b3008 	ldr	r3, [fp, #-8]
  102978:	e2833001 	add	r3, r3, #1
  10297c:	e50b3008 	str	r3, [fp, #-8]
  102980:	e51b3008 	ldr	r3, [fp, #-8]
  102984:	e3530001 	cmp	r3, #1
  102988:	9affffe3 	bls	10291c <rt_timer_start+0x24c>
  10298c:	ea000000 	b	102994 <rt_timer_start+0x2c4>
            break;
  102990:	e320f000 	nop	{0}
    }

    timer->parent.flag |= RT_TIMER_FLAG_ACTIVATED;
  102994:	e51b3020 	ldr	r3, [fp, #-32]	; 0xffffffe0
  102998:	e5d33009 	ldrb	r3, [r3, #9]
  10299c:	e3833001 	orr	r3, r3, #1
  1029a0:	e6ef2073 	uxtb	r2, r3
  1029a4:	e51b3020 	ldr	r3, [fp, #-32]	; 0xffffffe0
  1029a8:	e5c32009 	strb	r2, [r3, #9]

    /* release mutex */
    rt_mutex_release(mutex);
  1029ac:	e30e3410 	movw	r3, #58384	; 0xe410
  1029b0:	e3403014 	movt	r3, #20
  1029b4:	e5933000 	ldr	r3, [r3]
  1029b8:	e1a00003 	mov	r0, r3
  1029bc:	ebfff96d 	bl	100f78 <rt_mutex_release>

    /* update hardware timer */
    rt_hw_timer_update();
  1029c0:	eb0000cc 	bl	102cf8 <rt_hw_timer_update>

    return RT_EOK;
  1029c4:	e3a03000 	mov	r3, #0
}
  1029c8:	e1a00003 	mov	r0, r3
  1029cc:	e24bd004 	sub	sp, fp, #4
  1029d0:	e8bd8800 	pop	{fp, pc}

001029d4 <rt_timer_stop>:
 * @param timer the timer to be stopped
 *
 * @return the operation status, RT_EOK on OK, -RT_ERROR on error
 */
rt_err_t rt_timer_stop(rt_timer_t timer)
{
  1029d4:	e92d4800 	push	{fp, lr}
  1029d8:	e28db004 	add	fp, sp, #4
  1029dc:	e24dd008 	sub	sp, sp, #8
  1029e0:	e50b0008 	str	r0, [fp, #-8]
    if (!(timer->parent.flag & RT_TIMER_FLAG_ACTIVATED))
  1029e4:	e51b3008 	ldr	r3, [fp, #-8]
  1029e8:	e5d33009 	ldrb	r3, [r3, #9]
  1029ec:	e2033001 	and	r3, r3, #1
  1029f0:	e3530000 	cmp	r3, #0
  1029f4:	1a000001 	bne	102a00 <rt_timer_stop+0x2c>
        return -RT_ERROR;
  1029f8:	e3e03000 	mvn	r3, #0
  1029fc:	ea000017 	b	102a60 <rt_timer_stop+0x8c>

    /* make sure take mutex */
    while(rt_mutex_take(mutex, RT_WAITING_FOREVER) != RT_EOK);
  102a00:	e320f000 	nop	{0}
  102a04:	e30e3410 	movw	r3, #58384	; 0xe410
  102a08:	e3403014 	movt	r3, #20
  102a0c:	e5933000 	ldr	r3, [r3]
  102a10:	e3e01000 	mvn	r1, #0
  102a14:	e1a00003 	mov	r0, r3
  102a18:	ebfff938 	bl	100f00 <rt_mutex_take>
  102a1c:	e1a03000 	mov	r3, r0
  102a20:	e3530000 	cmp	r3, #0
  102a24:	1afffff6 	bne	102a04 <rt_timer_stop+0x30>

    _rt_timer_remove(timer);
  102a28:	e51b0008 	ldr	r0, [fp, #-8]
  102a2c:	ebfffeaf 	bl	1024f0 <_rt_timer_remove>

    /* release mutex */
    rt_mutex_release(mutex);
  102a30:	e30e3410 	movw	r3, #58384	; 0xe410
  102a34:	e3403014 	movt	r3, #20
  102a38:	e5933000 	ldr	r3, [r3]
  102a3c:	e1a00003 	mov	r0, r3
  102a40:	ebfff94c 	bl	100f78 <rt_mutex_release>

    /* change stat */
    timer->parent.flag &= ~RT_TIMER_FLAG_ACTIVATED;
  102a44:	e51b3008 	ldr	r3, [fp, #-8]
  102a48:	e5d33009 	ldrb	r3, [r3, #9]
  102a4c:	e3c33001 	bic	r3, r3, #1
  102a50:	e6ef2073 	uxtb	r2, r3
  102a54:	e51b3008 	ldr	r3, [fp, #-8]
  102a58:	e5c32009 	strb	r2, [r3, #9]

    return RT_EOK;
  102a5c:	e3a03000 	mov	r3, #0
}
  102a60:	e1a00003 	mov	r0, r3
  102a64:	e24bd004 	sub	sp, fp, #4
  102a68:	e8bd8800 	pop	{fp, pc}

00102a6c <rt_timer_control>:
 * @param arg the argument
 *
 * @return RT_EOK
 */
rt_err_t rt_timer_control(rt_timer_t timer, int cmd, void *arg)
{
  102a6c:	e52db004 	push	{fp}		; (str fp, [sp, #-4]!)
  102a70:	e28db000 	add	fp, sp, #0
  102a74:	e24dd014 	sub	sp, sp, #20
  102a78:	e50b0008 	str	r0, [fp, #-8]
  102a7c:	e50b100c 	str	r1, [fp, #-12]
  102a80:	e50b2010 	str	r2, [fp, #-16]
    switch (cmd)
  102a84:	e51b300c 	ldr	r3, [fp, #-12]
  102a88:	e3530008 	cmp	r3, #8
  102a8c:	979ff103 	ldrls	pc, [pc, r3, lsl #2]
  102a90:	ea000032 	b	102b60 <rt_timer_control+0xf4>
  102a94:	00102acc 	.word	0x00102acc
  102a98:	00102ab8 	.word	0x00102ab8
  102a9c:	00102ae0 	.word	0x00102ae0
  102aa0:	00102afc 	.word	0x00102afc
  102aa4:	00102b60 	.word	0x00102b60
  102aa8:	00102b18 	.word	0x00102b18
  102aac:	00102b2c 	.word	0x00102b2c
  102ab0:	00102b3c 	.word	0x00102b3c
  102ab4:	00102b50 	.word	0x00102b50
    {
    case RT_TIMER_CTRL_GET_TIME:
        *(rt_tick_t *)arg = timer->init_tick;
  102ab8:	e51b3008 	ldr	r3, [fp, #-8]
  102abc:	e5932024 	ldr	r2, [r3, #36]	; 0x24
  102ac0:	e51b3010 	ldr	r3, [fp, #-16]
  102ac4:	e5832000 	str	r2, [r3]
        break;
  102ac8:	ea000024 	b	102b60 <rt_timer_control+0xf4>

    case RT_TIMER_CTRL_SET_TIME:
        timer->init_tick = *(rt_tick_t *)arg;
  102acc:	e51b3010 	ldr	r3, [fp, #-16]
  102ad0:	e5932000 	ldr	r2, [r3]
  102ad4:	e51b3008 	ldr	r3, [fp, #-8]
  102ad8:	e5832024 	str	r2, [r3, #36]	; 0x24
        break;
  102adc:	ea00001f 	b	102b60 <rt_timer_control+0xf4>

    case RT_TIMER_CTRL_SET_ONESHOT:
        timer->parent.flag &= ~RT_TIMER_FLAG_PERIODIC;
  102ae0:	e51b3008 	ldr	r3, [fp, #-8]
  102ae4:	e5d33009 	ldrb	r3, [r3, #9]
  102ae8:	e3c33002 	bic	r3, r3, #2
  102aec:	e6ef2073 	uxtb	r2, r3
  102af0:	e51b3008 	ldr	r3, [fp, #-8]
  102af4:	e5c32009 	strb	r2, [r3, #9]
        break;
  102af8:	ea000018 	b	102b60 <rt_timer_control+0xf4>

    case RT_TIMER_CTRL_SET_PERIODIC:
        timer->parent.flag |= RT_TIMER_FLAG_PERIODIC;
  102afc:	e51b3008 	ldr	r3, [fp, #-8]
  102b00:	e5d33009 	ldrb	r3, [r3, #9]
  102b04:	e3833002 	orr	r3, r3, #2
  102b08:	e6ef2073 	uxtb	r2, r3
  102b0c:	e51b3008 	ldr	r3, [fp, #-8]
  102b10:	e5c32009 	strb	r2, [r3, #9]
        break;
  102b14:	ea000011 	b	102b60 <rt_timer_control+0xf4>

    case RT_TIMER_CTRL_GET_FUNC:
        *(void **)arg = timer->timeout_func;
  102b18:	e51b3008 	ldr	r3, [fp, #-8]
  102b1c:	e593201c 	ldr	r2, [r3, #28]
  102b20:	e51b3010 	ldr	r3, [fp, #-16]
  102b24:	e5832000 	str	r2, [r3]
        break;
  102b28:	ea00000c 	b	102b60 <rt_timer_control+0xf4>

    case RT_TIMER_CTRL_SET_FUNC:
        timer->timeout_func = (void (*)(void*))arg;
  102b2c:	e51b2010 	ldr	r2, [fp, #-16]
  102b30:	e51b3008 	ldr	r3, [fp, #-8]
  102b34:	e583201c 	str	r2, [r3, #28]
        break;
  102b38:	ea000008 	b	102b60 <rt_timer_control+0xf4>

    case RT_TIMER_CTRL_GET_PARM:
        *(void **)arg = timer->parameter;
  102b3c:	e51b3008 	ldr	r3, [fp, #-8]
  102b40:	e5932020 	ldr	r2, [r3, #32]
  102b44:	e51b3010 	ldr	r3, [fp, #-16]
  102b48:	e5832000 	str	r2, [r3]
        break;
  102b4c:	ea000003 	b	102b60 <rt_timer_control+0xf4>

    case RT_TIMER_CTRL_SET_PARM:
        timer->parameter = arg;
  102b50:	e51b3008 	ldr	r3, [fp, #-8]
  102b54:	e51b2010 	ldr	r2, [fp, #-16]
  102b58:	e5832020 	str	r2, [r3, #32]
        break;
  102b5c:	e320f000 	nop	{0}
    }

    return RT_EOK;
  102b60:	e3a03000 	mov	r3, #0
}
  102b64:	e1a00003 	mov	r0, r3
  102b68:	e28bd000 	add	sp, fp, #0
  102b6c:	e49db004 	pop	{fp}		; (ldr fp, [sp], #4)
  102b70:	e12fff1e 	bx	lr

00102b74 <rt_soft_timer_check>:
/**
 * This function will check timer list, if a timeout event happens, the
 * corresponding timeout function will be invoked.
 */
void rt_soft_timer_check(void)
{
  102b74:	e92d4800 	push	{fp, lr}
  102b78:	e28db004 	add	fp, sp, #4
  102b7c:	e24dd010 	sub	sp, sp, #16
    rt_list_t *n;
    struct rt_timer *t;

    RT_DEBUG_LOG(RT_DEBUG_TIMER, ("software timer check enter\n"));

    current_tick = rt_tick_get();
  102b80:	ebfffcb6 	bl	101e60 <rt_tick_get>
  102b84:	e50b0008 	str	r0, [fp, #-8]

    /* make sure take mutex */
    while(rt_mutex_take(mutex, RT_WAITING_FOREVER) != RT_EOK);
  102b88:	e320f000 	nop	{0}
  102b8c:	e30e3410 	movw	r3, #58384	; 0xe410
  102b90:	e3403014 	movt	r3, #20
  102b94:	e5933000 	ldr	r3, [r3]
  102b98:	e3e01000 	mvn	r1, #0
  102b9c:	e1a00003 	mov	r0, r3
  102ba0:	ebfff8d6 	bl	100f00 <rt_mutex_take>
  102ba4:	e1a03000 	mov	r3, r0
  102ba8:	e3530000 	cmp	r3, #0
  102bac:	1afffff6 	bne	102b8c <rt_soft_timer_check+0x18>

    for (n = rt_soft_timer_list[RT_TIMER_SKIP_LIST_LEVEL - 1].next;
  102bb0:	e30e3418 	movw	r3, #58392	; 0xe418
  102bb4:	e3403014 	movt	r3, #20
  102bb8:	e5933000 	ldr	r3, [r3]
  102bbc:	e50b300c 	str	r3, [fp, #-12]
  102bc0:	ea00003d 	b	102cbc <rt_soft_timer_check+0x148>
         n != &(rt_soft_timer_list[RT_TIMER_SKIP_LIST_LEVEL - 1]);)
    {
        t = rt_list_entry(n, struct rt_timer, row[RT_TIMER_SKIP_LIST_LEVEL - 1]);
  102bc4:	e51b300c 	ldr	r3, [fp, #-12]
  102bc8:	e2433014 	sub	r3, r3, #20
  102bcc:	e50b3010 	str	r3, [fp, #-16]

        /*
         * It supposes that the new tick shall less than the half duration of
         * tick max.
         */
        if ((current_tick - t->timeout_tick) < RT_TICK_MAX / 2)
  102bd0:	e51b3010 	ldr	r3, [fp, #-16]
  102bd4:	e5933028 	ldr	r3, [r3, #40]	; 0x28
  102bd8:	e51b2008 	ldr	r2, [fp, #-8]
  102bdc:	e0423003 	sub	r3, r2, r3
  102be0:	e373010a 	cmn	r3, #-2147483646	; 0x80000002
  102be4:	8a00003a 	bhi	102cd4 <rt_soft_timer_check+0x160>
        {
            /* move node to the next */
            n = n->next;
  102be8:	e51b300c 	ldr	r3, [fp, #-12]
  102bec:	e5933000 	ldr	r3, [r3]
  102bf0:	e50b300c 	str	r3, [fp, #-12]

            /* remove timer from timer list firstly */
            _rt_timer_remove(t);
  102bf4:	e51b0010 	ldr	r0, [fp, #-16]
  102bf8:	ebfffe3c 	bl	1024f0 <_rt_timer_remove>

            /* release mutex */
            rt_mutex_release(mutex);
  102bfc:	e30e3410 	movw	r3, #58384	; 0xe410
  102c00:	e3403014 	movt	r3, #20
  102c04:	e5933000 	ldr	r3, [r3]
  102c08:	e1a00003 	mov	r0, r3
  102c0c:	ebfff8d9 	bl	100f78 <rt_mutex_release>
            /* call timeout function */
            t->timeout_func(t->parameter);
  102c10:	e51b3010 	ldr	r3, [fp, #-16]
  102c14:	e593301c 	ldr	r3, [r3, #28]
  102c18:	e51b2010 	ldr	r2, [fp, #-16]
  102c1c:	e5922020 	ldr	r2, [r2, #32]
  102c20:	e1a00002 	mov	r0, r2
  102c24:	e12fff33 	blx	r3

            /* re-get tick */
            current_tick = rt_tick_get();
  102c28:	ebfffc8c 	bl	101e60 <rt_tick_get>
  102c2c:	e50b0008 	str	r0, [fp, #-8]

            RT_DEBUG_LOG(RT_DEBUG_TIMER, ("current tick: %d\n", current_tick));

            /* make sure take mutex */
            while(rt_mutex_take(mutex, RT_WAITING_FOREVER) != RT_EOK);
  102c30:	e320f000 	nop	{0}
  102c34:	e30e3410 	movw	r3, #58384	; 0xe410
  102c38:	e3403014 	movt	r3, #20
  102c3c:	e5933000 	ldr	r3, [r3]
  102c40:	e3e01000 	mvn	r1, #0
  102c44:	e1a00003 	mov	r0, r3
  102c48:	ebfff8ac 	bl	100f00 <rt_mutex_take>
  102c4c:	e1a03000 	mov	r3, r0
  102c50:	e3530000 	cmp	r3, #0
  102c54:	1afffff6 	bne	102c34 <rt_soft_timer_check+0xc0>


            if ((t->parent.flag & RT_TIMER_FLAG_PERIODIC) &&
  102c58:	e51b3010 	ldr	r3, [fp, #-16]
  102c5c:	e5d33009 	ldrb	r3, [r3, #9]
  102c60:	e2033002 	and	r3, r3, #2
  102c64:	e3530000 	cmp	r3, #0
  102c68:	0a00000d 	beq	102ca4 <rt_soft_timer_check+0x130>
                    (t->parent.flag & RT_TIMER_FLAG_ACTIVATED))
  102c6c:	e51b3010 	ldr	r3, [fp, #-16]
  102c70:	e5d33009 	ldrb	r3, [r3, #9]
  102c74:	e2033001 	and	r3, r3, #1
            if ((t->parent.flag & RT_TIMER_FLAG_PERIODIC) &&
  102c78:	e3530000 	cmp	r3, #0
  102c7c:	0a000008 	beq	102ca4 <rt_soft_timer_check+0x130>
            {
                /* start it */
                t->parent.flag &= ~RT_TIMER_FLAG_ACTIVATED;
  102c80:	e51b3010 	ldr	r3, [fp, #-16]
  102c84:	e5d33009 	ldrb	r3, [r3, #9]
  102c88:	e3c33001 	bic	r3, r3, #1
  102c8c:	e6ef2073 	uxtb	r2, r3
  102c90:	e51b3010 	ldr	r3, [fp, #-16]
  102c94:	e5c32009 	strb	r2, [r3, #9]
                rt_timer_start(t);
  102c98:	e51b0010 	ldr	r0, [fp, #-16]
  102c9c:	ebfffe8b 	bl	1026d0 <rt_timer_start>
  102ca0:	ea000005 	b	102cbc <rt_soft_timer_check+0x148>
            }
            else
            {
                /* stop timer */
                t->parent.flag &= ~RT_TIMER_FLAG_ACTIVATED;
  102ca4:	e51b3010 	ldr	r3, [fp, #-16]
  102ca8:	e5d33009 	ldrb	r3, [r3, #9]
  102cac:	e3c33001 	bic	r3, r3, #1
  102cb0:	e6ef2073 	uxtb	r2, r3
  102cb4:	e51b3010 	ldr	r3, [fp, #-16]
  102cb8:	e5c32009 	strb	r2, [r3, #9]
    for (n = rt_soft_timer_list[RT_TIMER_SKIP_LIST_LEVEL - 1].next;
  102cbc:	e51b200c 	ldr	r2, [fp, #-12]
  102cc0:	e30e3418 	movw	r3, #58392	; 0xe418
  102cc4:	e3403014 	movt	r3, #20
  102cc8:	e1520003 	cmp	r2, r3
  102ccc:	1affffbc 	bne	102bc4 <rt_soft_timer_check+0x50>
  102cd0:	ea000000 	b	102cd8 <rt_soft_timer_check+0x164>
            }
        }
        else break; /* not check anymore */
  102cd4:	e320f000 	nop	{0}
    }

    /* release mutex */
    rt_mutex_release(mutex);
  102cd8:	e30e3410 	movw	r3, #58384	; 0xe410
  102cdc:	e3403014 	movt	r3, #20
  102ce0:	e5933000 	ldr	r3, [r3]
  102ce4:	e1a00003 	mov	r0, r3
  102ce8:	ebfff8a2 	bl	100f78 <rt_mutex_release>

    RT_DEBUG_LOG(RT_DEBUG_TIMER, ("software timer check leave\n"));
}
  102cec:	e320f000 	nop	{0}
  102cf0:	e24bd004 	sub	sp, fp, #4
  102cf4:	e8bd8800 	pop	{fp, pc}

00102cf8 <rt_hw_timer_update>:

/* update hardware timer */
static void rt_hw_timer_update(void)
{
  102cf8:	e92d4800 	push	{fp, lr}
  102cfc:	e28db004 	add	fp, sp, #4
  102d00:	e24dd008 	sub	sp, sp, #8
    rt_tick_t next_timeout;
    rt_tick_t current_tick;

    /* get the next timeout tick */
    next_timeout = rt_timer_list_next_timeout(rt_soft_timer_list);
  102d04:	e30e0418 	movw	r0, #58392	; 0xe418
  102d08:	e3400014 	movt	r0, #20
  102d0c:	ebfffde3 	bl	1024a0 <rt_timer_list_next_timeout>
  102d10:	e1a03000 	mov	r3, r0
  102d14:	e50b300c 	str	r3, [fp, #-12]
    if (next_timeout == RT_TICK_MAX)
  102d18:	e51b300c 	ldr	r3, [fp, #-12]
  102d1c:	e3730001 	cmn	r3, #1
  102d20:	0a00001f 	beq	102da4 <rt_hw_timer_update+0xac>
        /* no software timer exist, return. */
        return;
    }

    /* get current tick */
    current_tick = rt_tick_get();
  102d24:	ebfffc4d 	bl	101e60 <rt_tick_get>
  102d28:	e50b0008 	str	r0, [fp, #-8]

    if ((next_timeout - current_tick) < RT_TICK_MAX / 2)
  102d2c:	e51b200c 	ldr	r2, [fp, #-12]
  102d30:	e51b3008 	ldr	r3, [fp, #-8]
  102d34:	e0423003 	sub	r3, r2, r3
  102d38:	e373010a 	cmn	r3, #-2147483646	; 0x80000002
  102d3c:	8a00001a 	bhi	102dac <rt_hw_timer_update+0xb4>
    {
        syscall(_NRSYS_timer_stop, hw_timer);
  102d40:	e30e340c 	movw	r3, #58380	; 0xe40c
  102d44:	e3403014 	movt	r3, #20
  102d48:	e5933000 	ldr	r3, [r3]
  102d4c:	e1a01003 	mov	r1, r3
  102d50:	e3a00072 	mov	r0, #114	; 0x72
  102d54:	eb00e640 	bl	13c65c <syscall>
        /* get the delta timeout tick */
        next_timeout = next_timeout - current_tick;
  102d58:	e51b200c 	ldr	r2, [fp, #-12]
  102d5c:	e51b3008 	ldr	r3, [fp, #-8]
  102d60:	e0423003 	sub	r3, r2, r3
  102d64:	e50b300c 	str	r3, [fp, #-12]
        syscall(_NRSYS_timer_control,
  102d68:	e30e340c 	movw	r3, #58380	; 0xe40c
  102d6c:	e3403014 	movt	r3, #20
  102d70:	e5931000 	ldr	r1, [r3]
  102d74:	e24b300c 	sub	r3, fp, #12
  102d78:	e3a02000 	mov	r2, #0
  102d7c:	e3a00073 	mov	r0, #115	; 0x73
  102d80:	eb00e635 	bl	13c65c <syscall>
                hw_timer,
                RT_TIMER_CTRL_SET_TIME,
                &next_timeout);
        syscall(_NRSYS_timer_start, hw_timer);
  102d84:	e30e340c 	movw	r3, #58380	; 0xe40c
  102d88:	e3403014 	movt	r3, #20
  102d8c:	e5933000 	ldr	r3, [r3]
  102d90:	e1a01003 	mov	r1, r3
  102d94:	e3a00071 	mov	r0, #113	; 0x71
  102d98:	eb00e62f 	bl	13c65c <syscall>
    }
    return;
  102d9c:	e320f000 	nop	{0}
  102da0:	ea000001 	b	102dac <rt_hw_timer_update+0xb4>
        return;
  102da4:	e320f000 	nop	{0}
  102da8:	ea000000 	b	102db0 <rt_hw_timer_update+0xb8>
    return;
  102dac:	e320f000 	nop	{0}
}
  102db0:	e24bd004 	sub	sp, fp, #4
  102db4:	e8bd8800 	pop	{fp, pc}

00102db8 <rt_thread_timer_handler>:

/* timer signal handler */
static void rt_thread_timer_handler(void)
{
  102db8:	e92d4800 	push	{fp, lr}
  102dbc:	e28db004 	add	fp, sp, #4
    /* update hardware timer */
    rt_hw_timer_update();
  102dc0:	ebffffcc 	bl	102cf8 <rt_hw_timer_update>
    /* check software timer */
    rt_soft_timer_check();
  102dc4:	ebffff6a 	bl	102b74 <rt_soft_timer_check>
}
  102dc8:	e320f000 	nop	{0}
  102dcc:	e8bd8800 	pop	{fp, pc}

00102dd0 <timer_thread_entry>:

static void timer_thread_entry(void* parameter)
{
  102dd0:	e92d4800 	push	{fp, lr}
  102dd4:	e28db004 	add	fp, sp, #4
  102dd8:	e24dd010 	sub	sp, sp, #16
  102ddc:	e50b0010 	str	r0, [fp, #-16]
    while (1)
    {
        rt_err_t ret;
        ret = rt_sem_take(sem, RT_WAITING_FOREVER);
  102de0:	e30e3414 	movw	r3, #58388	; 0xe414
  102de4:	e3403014 	movt	r3, #20
  102de8:	e5933000 	ldr	r3, [r3]
  102dec:	e3e01000 	mvn	r1, #0
  102df0:	e1a00003 	mov	r0, r3
  102df4:	ebfff92e 	bl	1012b4 <rt_sem_take>
  102df8:	e50b0008 	str	r0, [fp, #-8]
        if (ret != RT_EOK)
  102dfc:	e51b3008 	ldr	r3, [fp, #-8]
  102e00:	e3530000 	cmp	r3, #0
  102e04:	1a000001 	bne	102e10 <timer_thread_entry+0x40>
        {
            break;
        }
        rt_thread_timer_handler();
  102e08:	ebffffea 	bl	102db8 <rt_thread_timer_handler>
    {
  102e0c:	eafffff3 	b	102de0 <timer_thread_entry+0x10>
            break;
  102e10:	e320f000 	nop	{0}
    }
}
  102e14:	e320f000 	nop	{0}
  102e18:	e24bd004 	sub	sp, fp, #4
  102e1c:	e8bd8800 	pop	{fp, pc}

00102e20 <rt_system_timer_init>:

void rt_system_timer_init(rt_uint32_t timer_stack_size)
{
  102e20:	e92d4800 	push	{fp, lr}
  102e24:	e28db004 	add	fp, sp, #4
  102e28:	e24dd018 	sub	sp, sp, #24
  102e2c:	e50b0010 	str	r0, [fp, #-16]
    int i;
    rt_thread_t tid;

    if (!sem)
  102e30:	e30e3414 	movw	r3, #58388	; 0xe414
  102e34:	e3403014 	movt	r3, #20
  102e38:	e5933000 	ldr	r3, [r3]
  102e3c:	e3530000 	cmp	r3, #0
  102e40:	1a000008 	bne	102e68 <rt_system_timer_init+0x48>
    {
        sem = rt_sem_create("u_timer", 0, RT_IPC_FLAG_FIFO);
  102e44:	e3a02000 	mov	r2, #0
  102e48:	e3a01000 	mov	r1, #0
  102e4c:	e30506ac 	movw	r0, #22188	; 0x56ac
  102e50:	e3400014 	movt	r0, #20
  102e54:	ebfff863 	bl	100fe8 <rt_sem_create>
  102e58:	e1a02000 	mov	r2, r0
  102e5c:	e30e3414 	movw	r3, #58388	; 0xe414
  102e60:	e3403014 	movt	r3, #20
  102e64:	e5832000 	str	r2, [r3]
    }

    if (!mutex)
  102e68:	e30e3410 	movw	r3, #58384	; 0xe410
  102e6c:	e3403014 	movt	r3, #20
  102e70:	e5933000 	ldr	r3, [r3]
  102e74:	e3530000 	cmp	r3, #0
  102e78:	1a000007 	bne	102e9c <rt_system_timer_init+0x7c>
    {
        mutex = rt_mutex_create("utm_mutex", RT_IPC_FLAG_FIFO);
  102e7c:	e3a01000 	mov	r1, #0
  102e80:	e30506b4 	movw	r0, #22196	; 0x56b4
  102e84:	e3400014 	movt	r0, #20
  102e88:	ebfff786 	bl	100ca8 <rt_mutex_create>
  102e8c:	e1a02000 	mov	r2, r0
  102e90:	e30e3410 	movw	r3, #58384	; 0xe410
  102e94:	e3403014 	movt	r3, #20
  102e98:	e5832000 	str	r2, [r3]
    }

    for (i = 0;
  102e9c:	e3a03000 	mov	r3, #0
  102ea0:	e50b3008 	str	r3, [fp, #-8]
  102ea4:	ea000009 	b	102ed0 <rt_system_timer_init+0xb0>
         i < sizeof(rt_soft_timer_list) / sizeof(rt_soft_timer_list[0]);
         i++)
    {
        rt_list_init(rt_soft_timer_list + i);
  102ea8:	e51b3008 	ldr	r3, [fp, #-8]
  102eac:	e1a02183 	lsl	r2, r3, #3
  102eb0:	e30e3418 	movw	r3, #58392	; 0xe418
  102eb4:	e3403014 	movt	r3, #20
  102eb8:	e0823003 	add	r3, r2, r3
  102ebc:	e1a00003 	mov	r0, r3
  102ec0:	ebfffcf8 	bl	1022a8 <rt_list_init>
         i++)
  102ec4:	e51b3008 	ldr	r3, [fp, #-8]
  102ec8:	e2833001 	add	r3, r3, #1
  102ecc:	e50b3008 	str	r3, [fp, #-8]
    for (i = 0;
  102ed0:	e51b3008 	ldr	r3, [fp, #-8]
  102ed4:	e3530000 	cmp	r3, #0
  102ed8:	0afffff2 	beq	102ea8 <rt_system_timer_init+0x88>
    }

    /* initial hardware timer */
    if (!hw_timer)
  102edc:	e30e340c 	movw	r3, #58380	; 0xe40c
  102ee0:	e3403014 	movt	r3, #20
  102ee4:	e5933000 	ldr	r3, [r3]
  102ee8:	e3530000 	cmp	r3, #0
  102eec:	1a00000f 	bne	102f30 <rt_system_timer_init+0x110>
    {
        hw_timer = (rt_timer_t)syscall(_NRSYS_timer_create,
                "u_timer",
                sem->data, //SIG_HW_TIMER,
  102ef0:	e30e3414 	movw	r3, #58388	; 0xe414
  102ef4:	e3403014 	movt	r3, #20
  102ef8:	e5933000 	ldr	r3, [r3]
        hw_timer = (rt_timer_t)syscall(_NRSYS_timer_create,
  102efc:	e5932004 	ldr	r2, [r3, #4]
  102f00:	e3a03000 	mov	r3, #0
  102f04:	e58d3000 	str	r3, [sp]
  102f08:	e3a03000 	mov	r3, #0
  102f0c:	e30516ac 	movw	r1, #22188	; 0x56ac
  102f10:	e3401014 	movt	r1, #20
  102f14:	e3a0006f 	mov	r0, #111	; 0x6f
  102f18:	eb00e5cf 	bl	13c65c <syscall>
  102f1c:	e1a03000 	mov	r3, r0
  102f20:	e1a02003 	mov	r2, r3
  102f24:	e30e340c 	movw	r3, #58380	; 0xe40c
  102f28:	e3403014 	movt	r3, #20
  102f2c:	e5832000 	str	r2, [r3]
                0,
                RT_TIMER_FLAG_ONE_SHOT|RT_TIMER_FLAG_HARD_TIMER);
    }

    if (timer_stack_size < 4096)
  102f30:	e51b3010 	ldr	r3, [fp, #-16]
  102f34:	e3530a01 	cmp	r3, #4096	; 0x1000
  102f38:	2a000001 	bcs	102f44 <rt_system_timer_init+0x124>
    {
        timer_stack_size = 4096;
  102f3c:	e3a03a01 	mov	r3, #4096	; 0x1000
  102f40:	e50b3010 	str	r3, [fp, #-16]
    }

    tid = rt_thread_create("u_timer", timer_thread_entry, RT_NULL,
  102f44:	e3a0300a 	mov	r3, #10
  102f48:	e58d3004 	str	r3, [sp, #4]
  102f4c:	e3a03002 	mov	r3, #2
  102f50:	e58d3000 	str	r3, [sp]
  102f54:	e51b3010 	ldr	r3, [fp, #-16]
  102f58:	e3a02000 	mov	r2, #0
  102f5c:	e3021dd0 	movw	r1, #11728	; 0x2dd0
  102f60:	e3401010 	movt	r1, #16
  102f64:	e30506ac 	movw	r0, #22188	; 0x56ac
  102f68:	e3400014 	movt	r0, #20
  102f6c:	ebfffc60 	bl	1020f4 <rt_thread_create>
  102f70:	e50b000c 	str	r0, [fp, #-12]
            timer_stack_size, 2, 10);
    if (tid)
  102f74:	e51b300c 	ldr	r3, [fp, #-12]
  102f78:	e3530000 	cmp	r3, #0
  102f7c:	0a000001 	beq	102f88 <rt_system_timer_init+0x168>
    {
        rt_thread_startup(tid);
  102f80:	e51b000c 	ldr	r0, [fp, #-12]
  102f84:	ebfffc8f 	bl	1021c8 <rt_thread_startup>
    }
}
  102f88:	e320f000 	nop	{0}
  102f8c:	e24bd004 	sub	sp, fp, #4
  102f90:	e8bd8800 	pop	{fp, pc}

00102f94 <rt_malloc>:
#include <stdarg.h>

#include <rtthread.h>

void *rt_malloc(rt_size_t nbytes)
{
  102f94:	e92d4800 	push	{fp, lr}
  102f98:	e28db004 	add	fp, sp, #4
  102f9c:	e24dd008 	sub	sp, sp, #8
  102fa0:	e50b0008 	str	r0, [fp, #-8]
    return malloc(nbytes);
  102fa4:	e51b0008 	ldr	r0, [fp, #-8]
  102fa8:	eb00e968 	bl	13d550 <malloc>
  102fac:	e1a03000 	mov	r3, r0
}
  102fb0:	e1a00003 	mov	r0, r3
  102fb4:	e24bd004 	sub	sp, fp, #4
  102fb8:	e8bd8800 	pop	{fp, pc}

00102fbc <rt_free>:

void rt_free(void *ptr)
{
  102fbc:	e92d4800 	push	{fp, lr}
  102fc0:	e28db004 	add	fp, sp, #4
  102fc4:	e24dd008 	sub	sp, sp, #8
  102fc8:	e50b0008 	str	r0, [fp, #-8]
    return free(ptr);
  102fcc:	e51b0008 	ldr	r0, [fp, #-8]
  102fd0:	eb00eb1a 	bl	13dc40 <free>
}
  102fd4:	e24bd004 	sub	sp, fp, #4
  102fd8:	e8bd8800 	pop	{fp, pc}

00102fdc <rt_realloc>:

void *rt_realloc(void *ptr, rt_size_t nbytes)
{
  102fdc:	e92d4800 	push	{fp, lr}
  102fe0:	e28db004 	add	fp, sp, #4
  102fe4:	e24dd008 	sub	sp, sp, #8
  102fe8:	e50b0008 	str	r0, [fp, #-8]
  102fec:	e50b100c 	str	r1, [fp, #-12]
    return realloc(ptr, nbytes);
  102ff0:	e51b100c 	ldr	r1, [fp, #-12]
  102ff4:	e51b0008 	ldr	r0, [fp, #-8]
  102ff8:	eb00eb1f 	bl	13dc7c <realloc>
  102ffc:	e1a03000 	mov	r3, r0
}
  103000:	e1a00003 	mov	r0, r3
  103004:	e24bd004 	sub	sp, fp, #4
  103008:	e8bd8800 	pop	{fp, pc}

0010300c <rt_calloc>:

void *rt_calloc(rt_size_t count, rt_size_t size)
{
  10300c:	e92d4800 	push	{fp, lr}
  103010:	e28db004 	add	fp, sp, #4
  103014:	e24dd008 	sub	sp, sp, #8
  103018:	e50b0008 	str	r0, [fp, #-8]
  10301c:	e50b100c 	str	r1, [fp, #-12]
    return calloc(count, size);
  103020:	e51b100c 	ldr	r1, [fp, #-12]
  103024:	e51b0008 	ldr	r0, [fp, #-8]
  103028:	eb00eacd 	bl	13db64 <calloc>
  10302c:	e1a03000 	mov	r3, r0
}
  103030:	e1a00003 	mov	r0, r3
  103034:	e24bd004 	sub	sp, fp, #4
  103038:	e8bd8800 	pop	{fp, pc}

0010303c <rt_snprintf>:

rt_int32_t rt_snprintf(char *buf, rt_size_t size, const char *format, ...)
{
  10303c:	e92d000c 	push	{r2, r3}
  103040:	e92d4800 	push	{fp, lr}
  103044:	e28db004 	add	fp, sp, #4
  103048:	e24dd010 	sub	sp, sp, #16
  10304c:	e50b0010 	str	r0, [fp, #-16]
  103050:	e50b1014 	str	r1, [fp, #-20]	; 0xffffffec
    int ret;
    va_list ap;
    va_start(ap, format);
  103054:	e28b3008 	add	r3, fp, #8
  103058:	e50b300c 	str	r3, [fp, #-12]
    ret = vsnprintf(buf, size, format, ap);
  10305c:	e51b300c 	ldr	r3, [fp, #-12]
  103060:	e59b2004 	ldr	r2, [fp, #4]
  103064:	e51b1014 	ldr	r1, [fp, #-20]	; 0xffffffec
  103068:	e51b0010 	ldr	r0, [fp, #-16]
  10306c:	eb00f761 	bl	140df8 <vsnprintf>
  103070:	e50b0008 	str	r0, [fp, #-8]
    va_end(ap);
    return ret;
  103074:	e51b3008 	ldr	r3, [fp, #-8]
}
  103078:	e1a00003 	mov	r0, r3
  10307c:	e24bd004 	sub	sp, fp, #4
  103080:	e8bd4800 	pop	{fp, lr}
  103084:	e28dd008 	add	sp, sp, #8
  103088:	e12fff1e 	bx	lr

0010308c <rt_sprintf>:

rt_int32_t rt_sprintf(char *buf, const char *format, ...)
{
  10308c:	e92d000e 	push	{r1, r2, r3}
  103090:	e92d4800 	push	{fp, lr}
  103094:	e28db004 	add	fp, sp, #4
  103098:	e24dd014 	sub	sp, sp, #20
  10309c:	e50b0014 	str	r0, [fp, #-20]	; 0xffffffec
    int ret;
    va_list ap;
    va_start(ap, format);
  1030a0:	e28b3008 	add	r3, fp, #8
  1030a4:	e50b3010 	str	r3, [fp, #-16]
    ret = vsprintf(buf, format, ap);
  1030a8:	e51b2010 	ldr	r2, [fp, #-16]
  1030ac:	e59b1004 	ldr	r1, [fp, #4]
  1030b0:	e51b0014 	ldr	r0, [fp, #-20]	; 0xffffffec
  1030b4:	eb00f786 	bl	140ed4 <vsprintf>
  1030b8:	e50b000c 	str	r0, [fp, #-12]
    va_end(ap);
    return ret;
  1030bc:	e51b300c 	ldr	r3, [fp, #-12]
}
  1030c0:	e1a00003 	mov	r0, r3
  1030c4:	e24bd004 	sub	sp, fp, #4
  1030c8:	e8bd4800 	pop	{fp, lr}
  1030cc:	e28dd00c 	add	sp, sp, #12
  1030d0:	e12fff1e 	bx	lr

001030d4 <rt_vsnprintf>:

rt_int32_t rt_vsnprintf(char *buf,
    rt_size_t size,
    const char *fmt,
    va_list args)
{
  1030d4:	e92d4800 	push	{fp, lr}
  1030d8:	e28db004 	add	fp, sp, #4
  1030dc:	e24dd010 	sub	sp, sp, #16
  1030e0:	e50b0008 	str	r0, [fp, #-8]
  1030e4:	e50b100c 	str	r1, [fp, #-12]
  1030e8:	e50b2010 	str	r2, [fp, #-16]
  1030ec:	e50b3014 	str	r3, [fp, #-20]	; 0xffffffec
    return (rt_int32_t)vsnprintf(buf, size, fmt, args);
  1030f0:	e51b3014 	ldr	r3, [fp, #-20]	; 0xffffffec
  1030f4:	e51b2010 	ldr	r2, [fp, #-16]
  1030f8:	e51b100c 	ldr	r1, [fp, #-12]
  1030fc:	e51b0008 	ldr	r0, [fp, #-8]
  103100:	eb00f73c 	bl	140df8 <vsnprintf>
  103104:	e1a03000 	mov	r3, r0
}
  103108:	e1a00003 	mov	r0, r3
  10310c:	e24bd004 	sub	sp, fp, #4
  103110:	e8bd8800 	pop	{fp, pc}

00103114 <rt_kprintf>:

void rt_kprintf(const char *fmt, ...)
{
  103114:	e92d000f 	push	{r0, r1, r2, r3}
  103118:	e92d4800 	push	{fp, lr}
  10311c:	e28db004 	add	fp, sp, #4
  103120:	e24dd060 	sub	sp, sp, #96	; 0x60
    int ret;
    va_list ap;
    char buf[81];

    va_start(ap, fmt);
  103124:	e28b3008 	add	r3, fp, #8
  103128:	e50b300c 	str	r3, [fp, #-12]
    ret = vsnprintf(buf, 81, fmt, ap);
  10312c:	e24b0060 	sub	r0, fp, #96	; 0x60
  103130:	e51b300c 	ldr	r3, [fp, #-12]
  103134:	e59b2004 	ldr	r2, [fp, #4]
  103138:	e3a01051 	mov	r1, #81	; 0x51
  10313c:	eb00f72d 	bl	140df8 <vsnprintf>
  103140:	e50b0008 	str	r0, [fp, #-8]
    va_end(ap);
    if (ret > 0)
  103144:	e51b3008 	ldr	r3, [fp, #-8]
  103148:	e3530000 	cmp	r3, #0
  10314c:	da000004 	ble	103164 <rt_kprintf+0x50>
        printf("%s", buf);
  103150:	e24b3060 	sub	r3, fp, #96	; 0x60
  103154:	e1a01003 	mov	r1, r3
  103158:	e30506c0 	movw	r0, #22208	; 0x56c0
  10315c:	e3400014 	movt	r0, #20
  103160:	eb00ed94 	bl	13e7b8 <printf>
}
  103164:	e320f000 	nop	{0}
  103168:	e24bd004 	sub	sp, fp, #4
  10316c:	e8bd4800 	pop	{fp, lr}
  103170:	e28dd010 	add	sp, sp, #16
  103174:	e12fff1e 	bx	lr

00103178 <rt_strdup>:

char *rt_strdup(const char* s)
{
  103178:	e92d4800 	push	{fp, lr}
  10317c:	e28db004 	add	fp, sp, #4
  103180:	e24dd008 	sub	sp, sp, #8
  103184:	e50b0008 	str	r0, [fp, #-8]
    return strdup(s);
  103188:	e51b0008 	ldr	r0, [fp, #-8]
  10318c:	eb00f93d 	bl	141688 <strdup>
  103190:	e1a03000 	mov	r3, r0
}
  103194:	e1a00003 	mov	r0, r3
  103198:	e24bd004 	sub	sp, fp, #4
  10319c:	e8bd8800 	pop	{fp, pc}

001031a0 <rt_strstr>:

char *rt_strstr(const char *s1, const char *s2)
{
  1031a0:	e92d4800 	push	{fp, lr}
  1031a4:	e28db004 	add	fp, sp, #4
  1031a8:	e24dd008 	sub	sp, sp, #8
  1031ac:	e50b0008 	str	r0, [fp, #-8]
  1031b0:	e50b100c 	str	r1, [fp, #-12]
    return strstr(s1, s2);
  1031b4:	e51b100c 	ldr	r1, [fp, #-12]
  1031b8:	e51b0008 	ldr	r0, [fp, #-8]
  1031bc:	eb00fa78 	bl	141ba4 <strstr>
  1031c0:	e1a03000 	mov	r3, r0
}
  1031c4:	e1a00003 	mov	r0, r3
  1031c8:	e24bd004 	sub	sp, fp, #4
  1031cc:	e8bd8800 	pop	{fp, pc}

001031d0 <rt_strcmp>:

rt_int32_t rt_strcmp(const char *cs, const char *ct)
{
  1031d0:	e92d4800 	push	{fp, lr}
  1031d4:	e28db004 	add	fp, sp, #4
  1031d8:	e24dd008 	sub	sp, sp, #8
  1031dc:	e50b0008 	str	r0, [fp, #-8]
  1031e0:	e50b100c 	str	r1, [fp, #-12]
    return (rt_int32_t)strcmp(cs, ct);
  1031e4:	e51b100c 	ldr	r1, [fp, #-12]
  1031e8:	e51b0008 	ldr	r0, [fp, #-8]
  1031ec:	eb00f90f 	bl	141630 <strcmp>
  1031f0:	e1a03000 	mov	r3, r0
}
  1031f4:	e1a00003 	mov	r0, r3
  1031f8:	e24bd004 	sub	sp, fp, #4
  1031fc:	e8bd8800 	pop	{fp, pc}

00103200 <rt_strlen>:

rt_size_t rt_strlen(const char *src)
{
  103200:	e92d4800 	push	{fp, lr}
  103204:	e28db004 	add	fp, sp, #4
  103208:	e24dd008 	sub	sp, sp, #8
  10320c:	e50b0008 	str	r0, [fp, #-8]
    return strlen(src);
  103210:	e51b0008 	ldr	r0, [fp, #-8]
  103214:	eb00f927 	bl	1416b8 <strlen>
  103218:	e1a03000 	mov	r3, r0
}
  10321c:	e1a00003 	mov	r0, r3
  103220:	e24bd004 	sub	sp, fp, #4
  103224:	e8bd8800 	pop	{fp, pc}

00103228 <rt_strncmp>:

rt_int32_t rt_strncmp(const char *cs, const char *ct, rt_ubase_t count)
{
  103228:	e92d4800 	push	{fp, lr}
  10322c:	e28db004 	add	fp, sp, #4
  103230:	e24dd010 	sub	sp, sp, #16
  103234:	e50b0008 	str	r0, [fp, #-8]
  103238:	e50b100c 	str	r1, [fp, #-12]
  10323c:	e50b2010 	str	r2, [fp, #-16]
    return strncmp(cs, ct, count);
  103240:	e51b2010 	ldr	r2, [fp, #-16]
  103244:	e51b100c 	ldr	r1, [fp, #-12]
  103248:	e51b0008 	ldr	r0, [fp, #-8]
  10324c:	eb00f945 	bl	141768 <strncmp>
  103250:	e1a03000 	mov	r3, r0
}
  103254:	e1a00003 	mov	r0, r3
  103258:	e24bd004 	sub	sp, fp, #4
  10325c:	e8bd8800 	pop	{fp, pc}

00103260 <rt_strncpy>:

char *rt_strncpy(char *dest, const char *src, rt_ubase_t n)
{
  103260:	e92d4800 	push	{fp, lr}
  103264:	e28db004 	add	fp, sp, #4
  103268:	e24dd010 	sub	sp, sp, #16
  10326c:	e50b0008 	str	r0, [fp, #-8]
  103270:	e50b100c 	str	r1, [fp, #-12]
  103274:	e50b2010 	str	r2, [fp, #-16]
    return strncpy(dest, src, n);
  103278:	e51b2010 	ldr	r2, [fp, #-16]
  10327c:	e51b100c 	ldr	r1, [fp, #-12]
  103280:	e51b0008 	ldr	r0, [fp, #-8]
  103284:	eb00f95c 	bl	1417fc <strncpy>
  103288:	e1a03000 	mov	r3, r0
}
  10328c:	e1a00003 	mov	r0, r3
  103290:	e24bd004 	sub	sp, fp, #4
  103294:	e8bd8800 	pop	{fp, pc}

00103298 <rt_strcasecmp>:

rt_uint32_t rt_strcasecmp(const char *a, const char *b)
{
  103298:	e92d4800 	push	{fp, lr}
  10329c:	e28db004 	add	fp, sp, #4
  1032a0:	e24dd008 	sub	sp, sp, #8
  1032a4:	e50b0008 	str	r0, [fp, #-8]
  1032a8:	e50b100c 	str	r1, [fp, #-12]
    return strcasecmp(a, b);
  1032ac:	e51b100c 	ldr	r1, [fp, #-12]
  1032b0:	e51b0008 	ldr	r0, [fp, #-8]
  1032b4:	eb00f8b5 	bl	141590 <strcasecmp>
  1032b8:	e1a03000 	mov	r3, r0
}
  1032bc:	e1a00003 	mov	r0, r3
  1032c0:	e24bd004 	sub	sp, fp, #4
  1032c4:	e8bd8800 	pop	{fp, pc}

001032c8 <rt_memset>:

void *rt_memset(void *src, int c, rt_ubase_t n)
{
  1032c8:	e92d4800 	push	{fp, lr}
  1032cc:	e28db004 	add	fp, sp, #4
  1032d0:	e24dd010 	sub	sp, sp, #16
  1032d4:	e50b0008 	str	r0, [fp, #-8]
  1032d8:	e50b100c 	str	r1, [fp, #-12]
  1032dc:	e50b2010 	str	r2, [fp, #-16]
    return memset(src, c, n);
  1032e0:	e51b2010 	ldr	r2, [fp, #-16]
  1032e4:	e51b100c 	ldr	r1, [fp, #-12]
  1032e8:	e51b0008 	ldr	r0, [fp, #-8]
  1032ec:	eb00f860 	bl	141474 <memset>
  1032f0:	e1a03000 	mov	r3, r0
}
  1032f4:	e1a00003 	mov	r0, r3
  1032f8:	e24bd004 	sub	sp, fp, #4
  1032fc:	e8bd8800 	pop	{fp, pc}

00103300 <rt_memcpy>:

void *rt_memcpy(void *dest, const void *src, rt_ubase_t n)
{
  103300:	e92d4800 	push	{fp, lr}
  103304:	e28db004 	add	fp, sp, #4
  103308:	e24dd010 	sub	sp, sp, #16
  10330c:	e50b0008 	str	r0, [fp, #-8]
  103310:	e50b100c 	str	r1, [fp, #-12]
  103314:	e50b2010 	str	r2, [fp, #-16]
    return memcpy(dest, src, n);
  103318:	e51b2010 	ldr	r2, [fp, #-16]
  10331c:	e51b100c 	ldr	r1, [fp, #-12]
  103320:	e51b0008 	ldr	r0, [fp, #-8]
  103324:	eb00f71a 	bl	140f94 <memcpy>
  103328:	e1a03000 	mov	r3, r0
}
  10332c:	e1a00003 	mov	r0, r3
  103330:	e24bd004 	sub	sp, fp, #4
  103334:	e8bd8800 	pop	{fp, pc}

00103338 <rt_memcmp>:

rt_int32_t rt_memcmp(const void *cs, const void *ct, rt_ubase_t count)
{
  103338:	e92d4800 	push	{fp, lr}
  10333c:	e28db004 	add	fp, sp, #4
  103340:	e24dd010 	sub	sp, sp, #16
  103344:	e50b0008 	str	r0, [fp, #-8]
  103348:	e50b100c 	str	r1, [fp, #-12]
  10334c:	e50b2010 	str	r2, [fp, #-16]
    return memcmp(cs, ct, count);
  103350:	e51b2010 	ldr	r2, [fp, #-16]
  103354:	e51b100c 	ldr	r1, [fp, #-12]
  103358:	e51b0008 	ldr	r0, [fp, #-8]
  10335c:	eb00f7cb 	bl	141290 <memcmp>
  103360:	e1a03000 	mov	r3, r0
}
  103364:	e1a00003 	mov	r0, r3
  103368:	e24bd004 	sub	sp, fp, #4
  10336c:	e8bd8800 	pop	{fp, pc}

00103370 <rt_memmove>:

void *rt_memmove(void *dest, const void *src, rt_ubase_t n)
{
  103370:	e92d4800 	push	{fp, lr}
  103374:	e28db004 	add	fp, sp, #4
  103378:	e24dd010 	sub	sp, sp, #16
  10337c:	e50b0008 	str	r0, [fp, #-8]
  103380:	e50b100c 	str	r1, [fp, #-12]
  103384:	e50b2010 	str	r2, [fp, #-16]
    return memmove(dest, src, n);
  103388:	e51b2010 	ldr	r2, [fp, #-16]
  10338c:	e51b100c 	ldr	r1, [fp, #-12]
  103390:	e51b0008 	ldr	r0, [fp, #-8]
  103394:	eb00f7d0 	bl	1412dc <memmove>
  103398:	e1a03000 	mov	r3, r0
}
  10339c:	e1a00003 	mov	r0, r3
  1033a0:	e24bd004 	sub	sp, fp, #4
  1033a4:	e8bd8800 	pop	{fp, pc}

001033a8 <rt_tick_from_millisecond>:

rt_tick_t rt_tick_from_millisecond(rt_int32_t ms)
{
  1033a8:	e52db004 	push	{fp}		; (str fp, [sp, #-4]!)
  1033ac:	e28db000 	add	fp, sp, #0
  1033b0:	e24dd014 	sub	sp, sp, #20
  1033b4:	e50b0010 	str	r0, [fp, #-16]
    rt_tick_t tick;

    if (ms < 0)
  1033b8:	e51b3010 	ldr	r3, [fp, #-16]
  1033bc:	e3530000 	cmp	r3, #0
  1033c0:	aa000002 	bge	1033d0 <rt_tick_from_millisecond+0x28>
    {
        tick = (rt_tick_t)RT_WAITING_FOREVER;
  1033c4:	e3e03000 	mvn	r3, #0
  1033c8:	e50b3008 	str	r3, [fp, #-8]
  1033cc:	ea000021 	b	103458 <rt_tick_from_millisecond+0xb0>
    }
    else
    {
        tick = RT_TICK_PER_SECOND * (ms / 1000);
  1033d0:	e51b1010 	ldr	r1, [fp, #-16]
  1033d4:	e3043dd3 	movw	r3, #19923	; 0x4dd3
  1033d8:	e3413062 	movt	r3, #4194	; 0x1062
  1033dc:	e0c32391 	smull	r2, r3, r1, r3
  1033e0:	e1a02343 	asr	r2, r3, #6
  1033e4:	e1a03fc1 	asr	r3, r1, #31
  1033e8:	e0423003 	sub	r3, r2, r3
  1033ec:	e3a02ffa 	mov	r2, #1000	; 0x3e8
  1033f0:	e0030392 	mul	r3, r2, r3
  1033f4:	e50b3008 	str	r3, [fp, #-8]
        tick += (RT_TICK_PER_SECOND * (ms % 1000) + 999) / 1000;
  1033f8:	e51b2010 	ldr	r2, [fp, #-16]
  1033fc:	e3043dd3 	movw	r3, #19923	; 0x4dd3
  103400:	e3413062 	movt	r3, #4194	; 0x1062
  103404:	e0c10392 	smull	r0, r1, r2, r3
  103408:	e1a01341 	asr	r1, r1, #6
  10340c:	e1a03fc2 	asr	r3, r2, #31
  103410:	e0413003 	sub	r3, r1, r3
  103414:	e3a01ffa 	mov	r1, #1000	; 0x3e8
  103418:	e0030391 	mul	r3, r1, r3
  10341c:	e0423003 	sub	r3, r2, r3
  103420:	e3a02ffa 	mov	r2, #1000	; 0x3e8
  103424:	e0030392 	mul	r3, r2, r3
  103428:	e2833ff9 	add	r3, r3, #996	; 0x3e4
  10342c:	e2833003 	add	r3, r3, #3
  103430:	e3042dd3 	movw	r2, #19923	; 0x4dd3
  103434:	e3412062 	movt	r2, #4194	; 0x1062
  103438:	e0c10293 	smull	r0, r1, r3, r2
  10343c:	e1a02341 	asr	r2, r1, #6
  103440:	e1a03fc3 	asr	r3, r3, #31
  103444:	e0423003 	sub	r3, r2, r3
  103448:	e1a02003 	mov	r2, r3
  10344c:	e51b3008 	ldr	r3, [fp, #-8]
  103450:	e0833002 	add	r3, r3, r2
  103454:	e50b3008 	str	r3, [fp, #-8]
    }

    /* return the calculated tick */
    return tick;
  103458:	e51b3008 	ldr	r3, [fp, #-8]
}
  10345c:	e1a00003 	mov	r0, r3
  103460:	e28bd000 	add	sp, fp, #0
  103464:	e49db004 	pop	{fp}		; (ldr fp, [sp], #4)
  103468:	e12fff1e 	bx	lr

0010346c <rt_malloc_align>:
 * @param align the alignment size
 *
 * @return the allocated memory block on successful, otherwise returns RT_NULL
 */
void *rt_malloc_align(rt_size_t size, rt_size_t align)
{
  10346c:	e92d4800 	push	{fp, lr}
  103470:	e28db004 	add	fp, sp, #4
  103474:	e24dd018 	sub	sp, sp, #24
  103478:	e50b0018 	str	r0, [fp, #-24]	; 0xffffffe8
  10347c:	e50b101c 	str	r1, [fp, #-28]	; 0xffffffe4
    void *align_ptr;
    int uintptr_size;
    rt_size_t align_size;

    /* sizeof pointer */
    uintptr_size = sizeof(void*);
  103480:	e3a03004 	mov	r3, #4
  103484:	e50b3010 	str	r3, [fp, #-16]
    uintptr_size -= 1;
  103488:	e51b3010 	ldr	r3, [fp, #-16]
  10348c:	e2433001 	sub	r3, r3, #1
  103490:	e50b3010 	str	r3, [fp, #-16]

    /* align the alignment size to uintptr size byte */
    align = ((align + uintptr_size) & ~uintptr_size);
  103494:	e51b2010 	ldr	r2, [fp, #-16]
  103498:	e51b301c 	ldr	r3, [fp, #-28]	; 0xffffffe4
  10349c:	e0823003 	add	r3, r2, r3
  1034a0:	e51b2010 	ldr	r2, [fp, #-16]
  1034a4:	e1e02002 	mvn	r2, r2
  1034a8:	e0033002 	and	r3, r3, r2
  1034ac:	e50b301c 	str	r3, [fp, #-28]	; 0xffffffe4

    /* get total aligned size */
    align_size = ((size + uintptr_size) & ~uintptr_size) + align;
  1034b0:	e51b2010 	ldr	r2, [fp, #-16]
  1034b4:	e51b3018 	ldr	r3, [fp, #-24]	; 0xffffffe8
  1034b8:	e0823003 	add	r3, r2, r3
  1034bc:	e51b2010 	ldr	r2, [fp, #-16]
  1034c0:	e1e02002 	mvn	r2, r2
  1034c4:	e0033002 	and	r3, r3, r2
  1034c8:	e51b201c 	ldr	r2, [fp, #-28]	; 0xffffffe4
  1034cc:	e0823003 	add	r3, r2, r3
  1034d0:	e50b3014 	str	r3, [fp, #-20]	; 0xffffffec
    /* allocate memory block from heap */
    ptr = rt_malloc(align_size);
  1034d4:	e51b0014 	ldr	r0, [fp, #-20]	; 0xffffffec
  1034d8:	ebfffead 	bl	102f94 <rt_malloc>
  1034dc:	e50b0008 	str	r0, [fp, #-8]
    if (ptr != RT_NULL)
  1034e0:	e51b3008 	ldr	r3, [fp, #-8]
  1034e4:	e3530000 	cmp	r3, #0
  1034e8:	0a000019 	beq	103554 <rt_malloc_align+0xe8>
    {
        /* the allocated memory block is aligned */
        if (((rt_ubase_t)ptr & (align - 1)) == 0)
  1034ec:	e51b301c 	ldr	r3, [fp, #-28]	; 0xffffffe4
  1034f0:	e2432001 	sub	r2, r3, #1
  1034f4:	e51b3008 	ldr	r3, [fp, #-8]
  1034f8:	e0033002 	and	r3, r3, r2
  1034fc:	e3530000 	cmp	r3, #0
  103500:	1a000004 	bne	103518 <rt_malloc_align+0xac>
        {
            align_ptr = (void *)((rt_ubase_t)ptr + align);
  103504:	e51b2008 	ldr	r2, [fp, #-8]
  103508:	e51b301c 	ldr	r3, [fp, #-28]	; 0xffffffe4
  10350c:	e0823003 	add	r3, r2, r3
  103510:	e50b300c 	str	r3, [fp, #-12]
  103514:	ea000007 	b	103538 <rt_malloc_align+0xcc>
        }
        else
        {
            align_ptr = (void *)(((rt_ubase_t)ptr + (align - 1)) & ~(align - 1));
  103518:	e51b2008 	ldr	r2, [fp, #-8]
  10351c:	e51b301c 	ldr	r3, [fp, #-28]	; 0xffffffe4
  103520:	e0823003 	add	r3, r2, r3
  103524:	e2432001 	sub	r2, r3, #1
  103528:	e51b301c 	ldr	r3, [fp, #-28]	; 0xffffffe4
  10352c:	e2633000 	rsb	r3, r3, #0
  103530:	e0033002 	and	r3, r3, r2
  103534:	e50b300c 	str	r3, [fp, #-12]
        }

        /* set the pointer before alignment pointer to the real pointer */
        *((rt_ubase_t *)((rt_ubase_t)align_ptr - sizeof(void *))) = (rt_ubase_t)ptr;
  103538:	e51b300c 	ldr	r3, [fp, #-12]
  10353c:	e2433004 	sub	r3, r3, #4
  103540:	e1a02003 	mov	r2, r3
  103544:	e51b3008 	ldr	r3, [fp, #-8]
  103548:	e5823000 	str	r3, [r2]

        ptr = align_ptr;
  10354c:	e51b300c 	ldr	r3, [fp, #-12]
  103550:	e50b3008 	str	r3, [fp, #-8]
    }

    return ptr;
  103554:	e51b3008 	ldr	r3, [fp, #-8]
}
  103558:	e1a00003 	mov	r0, r3
  10355c:	e24bd004 	sub	sp, fp, #4
  103560:	e8bd8800 	pop	{fp, pc}

00103564 <rt_free_align>:
 * rt_malloc_align function and address is aligned.
 *
 * @param ptr the memory block pointer
 */
void rt_free_align(void *ptr)
{
  103564:	e92d4800 	push	{fp, lr}
  103568:	e28db004 	add	fp, sp, #4
  10356c:	e24dd010 	sub	sp, sp, #16
  103570:	e50b0010 	str	r0, [fp, #-16]
    void *real_ptr;

    real_ptr = (void *) * (rt_ubase_t *)((rt_ubase_t)ptr - sizeof(void *));
  103574:	e51b3010 	ldr	r3, [fp, #-16]
  103578:	e2433004 	sub	r3, r3, #4
  10357c:	e5933000 	ldr	r3, [r3]
  103580:	e50b3008 	str	r3, [fp, #-8]
    rt_free(real_ptr);
  103584:	e51b0008 	ldr	r0, [fp, #-8]
  103588:	ebfffe8b 	bl	102fbc <rt_free>
}
  10358c:	e320f000 	nop	{0}
  103590:	e24bd004 	sub	sp, fp, #4
  103594:	e8bd8800 	pop	{fp, pc}

00103598 <rt_assert_handler>:

void rt_assert_handler(const char *ex_string, const char *func, rt_size_t line)
{
  103598:	e92d4800 	push	{fp, lr}
  10359c:	e28db004 	add	fp, sp, #4
  1035a0:	e24dd010 	sub	sp, sp, #16
  1035a4:	e50b0008 	str	r0, [fp, #-8]
  1035a8:	e50b100c 	str	r1, [fp, #-12]
  1035ac:	e50b2010 	str	r2, [fp, #-16]
    printf("UserAPP: (%s) assertion failed at function:%s, line number:%d \n", ex_string, func, (int)line);
  1035b0:	e51b3010 	ldr	r3, [fp, #-16]
  1035b4:	e51b200c 	ldr	r2, [fp, #-12]
  1035b8:	e51b1008 	ldr	r1, [fp, #-8]
  1035bc:	e30506c4 	movw	r0, #22212	; 0x56c4
  1035c0:	e3400014 	movt	r0, #20
  1035c4:	eb00ec7b 	bl	13e7b8 <printf>
    exit(-1);
  1035c8:	e3e00000 	mvn	r0, #0
  1035cc:	eb00d709 	bl	1391f8 <exit>

001035d0 <channel_cmd_send>:
    /* Watch this, we use a void pointer to transfer the returned value. */
    return chn_msg.u.d;
}

rt_inline void channel_cmd_send(int channel, void *cmd)
{
  1035d0:	e92d4800 	push	{fp, lr}
  1035d4:	e28db004 	add	fp, sp, #4
  1035d8:	e24dd018 	sub	sp, sp, #24
  1035dc:	e50b0018 	str	r0, [fp, #-24]	; 0xffffffe8
  1035e0:	e50b101c 	str	r1, [fp, #-28]	; 0xffffffe4
    RT_ASSERT(channel >= 0);
  1035e4:	e51b3018 	ldr	r3, [fp, #-24]	; 0xffffffe8
  1035e8:	e3530000 	cmp	r3, #0
  1035ec:	aa000005 	bge	103608 <channel_cmd_send+0x38>
  1035f0:	e3a0201a 	mov	r2, #26
  1035f4:	e3051a64 	movw	r1, #23140	; 0x5a64
  1035f8:	e3401014 	movt	r1, #20
  1035fc:	e3050704 	movw	r0, #22276	; 0x5704
  103600:	e3400014 	movt	r0, #20
  103604:	ebffffe3 	bl	103598 <rt_assert_handler>

    /* wrap the command and data into an IPC message */
    struct rt_channel_msg chn_msg;
    chn_msg.type   = RT_CHANNEL_RAW;
  103608:	e3a03000 	mov	r3, #0
  10360c:	e50b3010 	str	r3, [fp, #-16]
    chn_msg.u.d    = cmd;
  103610:	e51b301c 	ldr	r3, [fp, #-28]	; 0xffffffe4
  103614:	e50b300c 	str	r3, [fp, #-12]

    /* send the command and not wait for the result */
    rt_channel_send(channel, &chn_msg);
  103618:	e24b3014 	sub	r3, fp, #20
  10361c:	e1a01003 	mov	r1, r3
  103620:	e51b0018 	ldr	r0, [fp, #-24]	; 0xffffffe8
  103624:	ebfff2f6 	bl	100204 <rt_channel_send>
}
  103628:	e320f000 	nop	{0}
  10362c:	e24bd004 	sub	sp, fp, #4
  103630:	e8bd8800 	pop	{fp, pc}

00103634 <channel_cmd_recv>:

rt_inline void *channel_cmd_recv(int channel)
{
  103634:	e92d4800 	push	{fp, lr}
  103638:	e28db004 	add	fp, sp, #4
  10363c:	e24dd018 	sub	sp, sp, #24
  103640:	e50b0018 	str	r0, [fp, #-24]	; 0xffffffe8
    RT_ASSERT(channel >= 0);
  103644:	e51b3018 	ldr	r3, [fp, #-24]	; 0xffffffe8
  103648:	e3530000 	cmp	r3, #0
  10364c:	aa000005 	bge	103668 <channel_cmd_recv+0x34>
  103650:	e3a02027 	mov	r2, #39	; 0x27
  103654:	e3051a3c 	movw	r1, #23100	; 0x5a3c
  103658:	e3401014 	movt	r1, #20
  10365c:	e3050704 	movw	r0, #22276	; 0x5704
  103660:	e3400014 	movt	r0, #20
  103664:	ebffffcb 	bl	103598 <rt_assert_handler>

    struct rt_channel_msg chn_msg;
    chn_msg.type = RT_CHANNEL_RAW;
  103668:	e3a03000 	mov	r3, #0
  10366c:	e50b3010 	str	r3, [fp, #-16]
    rt_channel_recv(channel, &chn_msg);
  103670:	e24b3014 	sub	r3, fp, #20
  103674:	e1a01003 	mov	r1, r3
  103678:	e51b0018 	ldr	r0, [fp, #-24]	; 0xffffffe8
  10367c:	ebfff2fa 	bl	10026c <rt_channel_recv>

    return chn_msg.u.d;
  103680:	e51b300c 	ldr	r3, [fp, #-12]
}
  103684:	e1a00003 	mov	r0, r3
  103688:	e24bd004 	sub	sp, fp, #4
  10368c:	e8bd8800 	pop	{fp, pc}

00103690 <channel_cmd_reply>:

rt_inline void channel_cmd_reply(int channel, void *cmd)
{
  103690:	e92d4800 	push	{fp, lr}
  103694:	e28db004 	add	fp, sp, #4
  103698:	e24dd018 	sub	sp, sp, #24
  10369c:	e50b0018 	str	r0, [fp, #-24]	; 0xffffffe8
  1036a0:	e50b101c 	str	r1, [fp, #-28]	; 0xffffffe4
    RT_ASSERT(channel >= 0);
  1036a4:	e51b3018 	ldr	r3, [fp, #-24]	; 0xffffffe8
  1036a8:	e3530000 	cmp	r3, #0
  1036ac:	aa000005 	bge	1036c8 <channel_cmd_reply+0x38>
  1036b0:	e3a02032 	mov	r2, #50	; 0x32
  1036b4:	e3051a50 	movw	r1, #23120	; 0x5a50
  1036b8:	e3401014 	movt	r1, #20
  1036bc:	e3050704 	movw	r0, #22276	; 0x5704
  1036c0:	e3400014 	movt	r0, #20
  1036c4:	ebffffb3 	bl	103598 <rt_assert_handler>

    struct rt_channel_msg chn_msg;
    chn_msg.type = RT_CHANNEL_RAW;
  1036c8:	e3a03000 	mov	r3, #0
  1036cc:	e50b3010 	str	r3, [fp, #-16]
    chn_msg.u.d = cmd;
  1036d0:	e51b301c 	ldr	r3, [fp, #-28]	; 0xffffffe4
  1036d4:	e50b300c 	str	r3, [fp, #-12]

    rt_channel_reply(channel, &chn_msg);
  1036d8:	e24b3014 	sub	r3, fp, #20
  1036dc:	e1a01003 	mov	r1, r3
  1036e0:	e51b0018 	ldr	r0, [fp, #-24]	; 0xffffffe8
  1036e4:	ebfff2d3 	bl	100238 <rt_channel_reply>
}
  1036e8:	e320f000 	nop	{0}
  1036ec:	e24bd004 	sub	sp, fp, #4
  1036f0:	e8bd8800 	pop	{fp, pc}

001036f4 <stack_init>:
 *  0: initialization completes successfully, further actions can be carried on
 *  1: initialization has been done before, we could do anything but another
 *  initialization
 */
int stack_init(void)
{
  1036f4:	e92d4800 	push	{fp, lr}
  1036f8:	e28db004 	add	fp, sp, #4
    /* stack channel as a flag whether the stack has been initialized */
    stack_channel = rt_channel_open(chn_name, O_CREAT);
  1036fc:	e30e3014 	movw	r3, #57364	; 0xe014
  103700:	e3403014 	movt	r3, #20
  103704:	e5933000 	ldr	r3, [r3]
  103708:	e3a01040 	mov	r1, #64	; 0x40
  10370c:	e1a00003 	mov	r0, r3
  103710:	ebfff280 	bl	100118 <rt_channel_open>
  103714:	e1a02000 	mov	r2, r0
  103718:	e30e3010 	movw	r3, #57360	; 0xe010
  10371c:	e3403014 	movt	r3, #20
  103720:	e5832000 	str	r2, [r3]
    if (stack_channel < 0) return 1;    /* initialization has been done */
  103724:	e30e3010 	movw	r3, #57360	; 0xe010
  103728:	e3403014 	movt	r3, #20
  10372c:	e5933000 	ldr	r3, [r3]
  103730:	e3530000 	cmp	r3, #0
  103734:	aa000001 	bge	103740 <stack_init+0x4c>
  103738:	e3a03001 	mov	r3, #1
  10373c:	ea000001 	b	103748 <stack_init+0x54>
    //     printf("attach stack failed!\n");
    //     goto close_unet_channel;
    // }

    /* start the TCPIP thread */
    lwip_system_init();
  103740:	eb001b63 	bl	10a4d4 <lwip_system_init>
    return 0;
  103744:	e3a03000 	mov	r3, #0
//     data_channel = -1;
// close_stack_channel:
//     rt_channel_close(stack_channel);
//     stack_channel = -1;
//     return -1;      /* initialization fails */
}
  103748:	e1a00003 	mov	r0, r3
  10374c:	e8bd8800 	pop	{fp, pc}

00103750 <stack_run>:
};
extern struct lwip_sock *lwip_tryget_socket(int s);
extern struct lwip_sock * get_socket(int s);
extern int access_is_blocking(u32_t flags, struct lwip_sock *sock);
int stack_run(void)
{
  103750:	e92d4800 	push	{fp, lr}
  103754:	e28db004 	add	fp, sp, #4
  103758:	e24dd050 	sub	sp, sp, #80	; 0x50
    // struct lwip_sock *sock = RT_NULL;

    /* run stack event loop */
    while (1)
    {
        int shmid = (int)(size_t)channel_cmd_recv(stack_channel);
  10375c:	e30e3010 	movw	r3, #57360	; 0xe010
  103760:	e3403014 	movt	r3, #20
  103764:	e5933000 	ldr	r3, [r3]
  103768:	e1a00003 	mov	r0, r3
  10376c:	ebffffb0 	bl	103634 <channel_cmd_recv>
  103770:	e1a03000 	mov	r3, r0
  103774:	e50b300c 	str	r3, [fp, #-12]
        if (shmid >= 0)
  103778:	e51b300c 	ldr	r3, [fp, #-12]
  10377c:	e3530000 	cmp	r3, #0
  103780:	ba000124 	blt	103c18 <stack_run+0x4c8>
        {
            cmd = lwp_shmat(shmid, NULL);
  103784:	e3a01000 	mov	r1, #0
  103788:	e51b000c 	ldr	r0, [fp, #-12]
  10378c:	ebfff9df 	bl	101f10 <lwp_shmat>
  103790:	e50b0010 	str	r0, [fp, #-16]
            if (!cmd)
  103794:	e51b3010 	ldr	r3, [fp, #-16]
  103798:	e3530000 	cmp	r3, #0
  10379c:	1a000002 	bne	1037ac <stack_run+0x5c>
            {
                lwp_shmrm(shmid);
  1037a0:	e51b000c 	ldr	r0, [fp, #-12]
  1037a4:	ebfff9ce 	bl	101ee4 <lwp_shmrm>
                continue;
  1037a8:	ea00011d 	b	103c24 <stack_run+0x4d4>
            }

            switch (cmd->cmd)
  1037ac:	e51b3010 	ldr	r3, [fp, #-16]
  1037b0:	e5933000 	ldr	r3, [r3]
  1037b4:	e2433014 	sub	r3, r3, #20
  1037b8:	e3530009 	cmp	r3, #9
  1037bc:	979ff103 	ldrls	pc, [pc, r3, lsl #2]
  1037c0:	ea000116 	b	103c20 <stack_run+0x4d0>
  1037c4:	001037ec 	.word	0x001037ec
  1037c8:	00103c20 	.word	0x00103c20
  1037cc:	0010384c 	.word	0x0010384c
  1037d0:	001038b0 	.word	0x001038b0
  1037d4:	001038fc 	.word	0x001038fc
  1037d8:	00103960 	.word	0x00103960
  1037dc:	001039bc 	.word	0x001039bc
  1037e0:	00103ac8 	.word	0x00103ac8
  1037e4:	00103c20 	.word	0x00103c20
  1037e8:	00103b94 	.word	0x00103b94
            {
            /* handle socket requests */
            case UNET_SRV_CMD_SOCKET:
                domain = (int)(size_t)cmd->argv[0];
  1037ec:	e51b3010 	ldr	r3, [fp, #-16]
  1037f0:	e5933004 	ldr	r3, [r3, #4]
  1037f4:	e50b3044 	str	r3, [fp, #-68]	; 0xffffffbc
                type = (int)(size_t)cmd->argv[1];
  1037f8:	e51b3010 	ldr	r3, [fp, #-16]
  1037fc:	e5933008 	ldr	r3, [r3, #8]
  103800:	e50b3048 	str	r3, [fp, #-72]	; 0xffffffb8
                protocol = (int)(size_t)cmd->argv[2];
  103804:	e51b3010 	ldr	r3, [fp, #-16]
  103808:	e593300c 	ldr	r3, [r3, #12]
  10380c:	e50b304c 	str	r3, [fp, #-76]	; 0xffffffb4
                socket = socket_internal(domain, type, protocol);
  103810:	e51b204c 	ldr	r2, [fp, #-76]	; 0xffffffb4
  103814:	e51b1048 	ldr	r1, [fp, #-72]	; 0xffffffb8
  103818:	e51b0044 	ldr	r0, [fp, #-68]	; 0xffffffbc
  10381c:	eb001829 	bl	1098c8 <socket_internal>
  103820:	e50b0014 	str	r0, [fp, #-20]	; 0xffffffec
                lwp_shmdt(cmd);
  103824:	e51b0010 	ldr	r0, [fp, #-16]
  103828:	ebfff9c5 	bl	101f44 <lwp_shmdt>
                channel_cmd_reply(stack_channel, (void *)(size_t)socket);
  10382c:	e30e3010 	movw	r3, #57360	; 0xe010
  103830:	e3403014 	movt	r3, #20
  103834:	e5933000 	ldr	r3, [r3]
  103838:	e51b2014 	ldr	r2, [fp, #-20]	; 0xffffffec
  10383c:	e1a01002 	mov	r1, r2
  103840:	e1a00003 	mov	r0, r3
  103844:	ebffff91 	bl	103690 <channel_cmd_reply>
                break;
  103848:	ea0000f5 	b	103c24 <stack_run+0x4d4>
            //     lwp_shmdt(cmd);
            //     channel_cmd_reply(stack_channel, (void *)(size_t)result);
            //     break;

            case UNET_SRV_CMD_BIND:
                socket = (int)(size_t)cmd->argv[0];
  10384c:	e51b3010 	ldr	r3, [fp, #-16]
  103850:	e5933004 	ldr	r3, [r3, #4]
  103854:	e50b3014 	str	r3, [fp, #-20]	; 0xffffffec
                psockaddr = (void *)(size_t)cmd + UNET_CMD_OFFSET;
  103858:	e51b3010 	ldr	r3, [fp, #-16]
  10385c:	e283301c 	add	r3, r3, #28
  103860:	e50b3038 	str	r3, [fp, #-56]	; 0xffffffc8
                len = (int)(size_t)cmd->argv[1];
  103864:	e51b3010 	ldr	r3, [fp, #-16]
  103868:	e5933008 	ldr	r3, [r3, #8]
  10386c:	e50b3040 	str	r3, [fp, #-64]	; 0xffffffc0

                result = bind_internal(socket, psockaddr, len);
  103870:	e51b3040 	ldr	r3, [fp, #-64]	; 0xffffffc0
  103874:	e1a02003 	mov	r2, r3
  103878:	e51b1038 	ldr	r1, [fp, #-56]	; 0xffffffc8
  10387c:	e51b0014 	ldr	r0, [fp, #-20]	; 0xffffffec
  103880:	eb00176e 	bl	109640 <bind_internal>
  103884:	e50b0008 	str	r0, [fp, #-8]

                lwp_shmdt(cmd);
  103888:	e51b0010 	ldr	r0, [fp, #-16]
  10388c:	ebfff9ac 	bl	101f44 <lwp_shmdt>
                channel_cmd_reply(stack_channel, (void *)(size_t)result);
  103890:	e30e3010 	movw	r3, #57360	; 0xe010
  103894:	e3403014 	movt	r3, #20
  103898:	e5933000 	ldr	r3, [r3]
  10389c:	e51b2008 	ldr	r2, [fp, #-8]
  1038a0:	e1a01002 	mov	r1, r2
  1038a4:	e1a00003 	mov	r0, r3
  1038a8:	ebffff78 	bl	103690 <channel_cmd_reply>
                break;
  1038ac:	ea0000dc 	b	103c24 <stack_run+0x4d4>

            case UNET_SRV_CMD_LISTEN:
                socket = (int)(size_t)cmd->argv[0];
  1038b0:	e51b3010 	ldr	r3, [fp, #-16]
  1038b4:	e5933004 	ldr	r3, [r3, #4]
  1038b8:	e50b3014 	str	r3, [fp, #-20]	; 0xffffffec

                result = listen_internal(socket, (int)(size_t)cmd->argv[1]);
  1038bc:	e51b3010 	ldr	r3, [fp, #-16]
  1038c0:	e5933008 	ldr	r3, [r3, #8]
  1038c4:	e1a01003 	mov	r1, r3
  1038c8:	e51b0014 	ldr	r0, [fp, #-20]	; 0xffffffec
  1038cc:	eb001792 	bl	10971c <listen_internal>
  1038d0:	e50b0008 	str	r0, [fp, #-8]

                lwp_shmdt(cmd);
  1038d4:	e51b0010 	ldr	r0, [fp, #-16]
  1038d8:	ebfff999 	bl	101f44 <lwp_shmdt>
                channel_cmd_reply(stack_channel, (void *)(size_t)result);
  1038dc:	e30e3010 	movw	r3, #57360	; 0xe010
  1038e0:	e3403014 	movt	r3, #20
  1038e4:	e5933000 	ldr	r3, [r3]
  1038e8:	e51b2008 	ldr	r2, [fp, #-8]
  1038ec:	e1a01002 	mov	r1, r2
  1038f0:	e1a00003 	mov	r0, r3
  1038f4:	ebffff65 	bl	103690 <channel_cmd_reply>
                break;
  1038f8:	ea0000c9 	b	103c24 <stack_run+0x4d4>

            case UNET_SRV_CMD_CONNECT:
                socket = (int)(size_t)cmd->argv[0];
  1038fc:	e51b3010 	ldr	r3, [fp, #-16]
  103900:	e5933004 	ldr	r3, [r3, #4]
  103904:	e50b3014 	str	r3, [fp, #-20]	; 0xffffffec
                psockaddr = (void *)(size_t)cmd + UNET_CMD_OFFSET;
  103908:	e51b3010 	ldr	r3, [fp, #-16]
  10390c:	e283301c 	add	r3, r3, #28
  103910:	e50b3038 	str	r3, [fp, #-56]	; 0xffffffc8
                len = (int)(size_t)cmd->argv[1];
  103914:	e51b3010 	ldr	r3, [fp, #-16]
  103918:	e5933008 	ldr	r3, [r3, #8]
  10391c:	e50b3040 	str	r3, [fp, #-64]	; 0xffffffc0

                result = connect_internal(socket, psockaddr, len);
  103920:	e51b3040 	ldr	r3, [fp, #-64]	; 0xffffffc0
  103924:	e1a02003 	mov	r2, r3
  103928:	e51b1038 	ldr	r1, [fp, #-56]	; 0xffffffc8
  10392c:	e51b0014 	ldr	r0, [fp, #-20]	; 0xffffffec
  103930:	eb001753 	bl	109684 <connect_internal>
  103934:	e50b0008 	str	r0, [fp, #-8]

                lwp_shmdt(cmd);
  103938:	e51b0010 	ldr	r0, [fp, #-16]
  10393c:	ebfff980 	bl	101f44 <lwp_shmdt>
                channel_cmd_reply(stack_channel, (void *)(size_t)result);
  103940:	e30e3010 	movw	r3, #57360	; 0xe010
  103944:	e3403014 	movt	r3, #20
  103948:	e5933000 	ldr	r3, [r3]
  10394c:	e51b2008 	ldr	r2, [fp, #-8]
  103950:	e1a01002 	mov	r1, r2
  103954:	e1a00003 	mov	r0, r3
  103958:	ebffff4c 	bl	103690 <channel_cmd_reply>
                break;
  10395c:	ea0000b0 	b	103c24 <stack_run+0x4d4>

            case UNET_SRV_CMD_ACCEPT:
                socket = (int)(size_t)cmd->argv[0];
  103960:	e51b3010 	ldr	r3, [fp, #-16]
  103964:	e5933004 	ldr	r3, [r3, #4]
  103968:	e50b3014 	str	r3, [fp, #-20]	; 0xffffffec
                psockaddr = (void *)(size_t)cmd + UNET_CMD_OFFSET;
  10396c:	e51b3010 	ldr	r3, [fp, #-16]
  103970:	e283301c 	add	r3, r3, #28
  103974:	e50b3038 	str	r3, [fp, #-56]	; 0xffffffc8
                result = accept_internal(socket, psockaddr, (socklen_t *)&cmd->argv[1]);
  103978:	e51b3010 	ldr	r3, [fp, #-16]
  10397c:	e2833008 	add	r3, r3, #8
  103980:	e1a02003 	mov	r2, r3
  103984:	e51b1038 	ldr	r1, [fp, #-56]	; 0xffffffc8
  103988:	e51b0014 	ldr	r0, [fp, #-20]	; 0xffffffec
  10398c:	eb0016c3 	bl	1094a0 <accept_internal>
  103990:	e50b0008 	str	r0, [fp, #-8]
                lwp_shmdt(cmd);
  103994:	e51b0010 	ldr	r0, [fp, #-16]
  103998:	ebfff969 	bl	101f44 <lwp_shmdt>
                channel_cmd_reply(stack_channel, (void *)(size_t)result);
  10399c:	e30e3010 	movw	r3, #57360	; 0xe010
  1039a0:	e3403014 	movt	r3, #20
  1039a4:	e5933000 	ldr	r3, [r3]
  1039a8:	e51b2008 	ldr	r2, [fp, #-8]
  1039ac:	e1a01002 	mov	r1, r2
  1039b0:	e1a00003 	mov	r0, r3
  1039b4:	ebffff35 	bl	103690 <channel_cmd_reply>
                break;
  1039b8:	ea000099 	b	103c24 <stack_run+0x4d4>

            case UNET_SRV_CMD_SENDTO:
                socket = (int)(size_t)cmd->argv[0];
  1039bc:	e51b3010 	ldr	r3, [fp, #-16]
  1039c0:	e5933004 	ldr	r3, [r3, #4]
  1039c4:	e50b3014 	str	r3, [fp, #-20]	; 0xffffffec
                size = (size_t)cmd->argv[1];
  1039c8:	e51b3010 	ldr	r3, [fp, #-16]
  1039cc:	e5933008 	ldr	r3, [r3, #8]
  1039d0:	e50b3028 	str	r3, [fp, #-40]	; 0xffffffd8
                flags = (int)(size_t)cmd->argv[2];
  1039d4:	e51b3010 	ldr	r3, [fp, #-16]
  1039d8:	e593300c 	ldr	r3, [r3, #12]
  1039dc:	e50b302c 	str	r3, [fp, #-44]	; 0xffffffd4
                tolen = (int)(size_t)cmd->argv[3];
  1039e0:	e51b3010 	ldr	r3, [fp, #-16]
  1039e4:	e5933010 	ldr	r3, [r3, #16]
  1039e8:	e50b303c 	str	r3, [fp, #-60]	; 0xffffffc4
                data = (void *)(size_t)cmd + UNET_CMD_OFFSET;
  1039ec:	e51b3010 	ldr	r3, [fp, #-16]
  1039f0:	e283301c 	add	r3, r3, #28
  1039f4:	e50b3034 	str	r3, [fp, #-52]	; 0xffffffcc

                lwip_send_count++;
  1039f8:	e30e3424 	movw	r3, #58404	; 0xe424
  1039fc:	e3403014 	movt	r3, #20
  103a00:	e5933000 	ldr	r3, [r3]
  103a04:	e2832001 	add	r2, r3, #1
  103a08:	e30e3424 	movw	r3, #58404	; 0xe424
  103a0c:	e3403014 	movt	r3, #20
  103a10:	e5832000 	str	r2, [r3]
                if(tolen  == 0)
  103a14:	e51b303c 	ldr	r3, [fp, #-60]	; 0xffffffc4
  103a18:	e3530000 	cmp	r3, #0
  103a1c:	1a000006 	bne	103a3c <stack_run+0x2ec>
                {
                    result = send_internal(socket, data, size, flags);
  103a20:	e51b302c 	ldr	r3, [fp, #-44]	; 0xffffffd4
  103a24:	e51b2028 	ldr	r2, [fp, #-40]	; 0xffffffd8
  103a28:	e51b1034 	ldr	r1, [fp, #-52]	; 0xffffffcc
  103a2c:	e51b0014 	ldr	r0, [fp, #-20]	; 0xffffffec
  103a30:	eb001776 	bl	109810 <send_internal>
  103a34:	e50b0008 	str	r0, [fp, #-8]
  103a38:	ea00000f 	b	103a7c <stack_run+0x32c>
                }
                else
                {
                    psockaddr = (void *)(size_t)cmd + UNET_CMD_OFFSET + size;
  103a3c:	e51b3028 	ldr	r3, [fp, #-40]	; 0xffffffd8
  103a40:	e283301c 	add	r3, r3, #28
  103a44:	e51b2010 	ldr	r2, [fp, #-16]
  103a48:	e0823003 	add	r3, r2, r3
  103a4c:	e50b3038 	str	r3, [fp, #-56]	; 0xffffffc8
                    result = sendto_internal(socket, data, size, flags, psockaddr, tolen);
  103a50:	e51b202c 	ldr	r2, [fp, #-44]	; 0xffffffd4
  103a54:	e51b303c 	ldr	r3, [fp, #-60]	; 0xffffffc4
  103a58:	e58d3004 	str	r3, [sp, #4]
  103a5c:	e51b3038 	ldr	r3, [fp, #-56]	; 0xffffffc8
  103a60:	e58d3000 	str	r3, [sp]
  103a64:	e1a03002 	mov	r3, r2
  103a68:	e51b2028 	ldr	r2, [fp, #-40]	; 0xffffffd8
  103a6c:	e51b1034 	ldr	r1, [fp, #-52]	; 0xffffffcc
  103a70:	e51b0014 	ldr	r0, [fp, #-20]	; 0xffffffec
  103a74:	eb00177c 	bl	10986c <sendto_internal>
  103a78:	e50b0008 	str	r0, [fp, #-8]
                }
                if(result <= 0)
  103a7c:	e51b3008 	ldr	r3, [fp, #-8]
  103a80:	e3530000 	cmp	r3, #0
  103a84:	ca000005 	bgt	103aa0 <stack_run+0x350>
                {
                    rt_kprintf("%s line %d sendto error\n",__func__,__LINE__);
  103a88:	e300214d 	movw	r2, #333	; 0x14d
  103a8c:	e3051a30 	movw	r1, #23088	; 0x5a30
  103a90:	e3401014 	movt	r1, #20
  103a94:	e3050724 	movw	r0, #22308	; 0x5724
  103a98:	e3400014 	movt	r0, #20
  103a9c:	ebfffd9c 	bl	103114 <rt_kprintf>
                }
                lwp_shmdt(cmd);
  103aa0:	e51b0010 	ldr	r0, [fp, #-16]
  103aa4:	ebfff926 	bl	101f44 <lwp_shmdt>
                channel_cmd_reply(stack_channel, (void *)(size_t)result);
  103aa8:	e30e3010 	movw	r3, #57360	; 0xe010
  103aac:	e3403014 	movt	r3, #20
  103ab0:	e5933000 	ldr	r3, [r3]
  103ab4:	e51b2008 	ldr	r2, [fp, #-8]
  103ab8:	e1a01002 	mov	r1, r2
  103abc:	e1a00003 	mov	r0, r3
  103ac0:	ebfffef2 	bl	103690 <channel_cmd_reply>
                break;
  103ac4:	ea000056 	b	103c24 <stack_run+0x4d4>

            case UNET_SRV_CMD_RECVFROM:
                socket = (int)(size_t)cmd->argv[0];
  103ac8:	e51b3010 	ldr	r3, [fp, #-16]
  103acc:	e5933004 	ldr	r3, [r3, #4]
  103ad0:	e50b3014 	str	r3, [fp, #-20]	; 0xffffffec
                size = (size_t)cmd->argv[1];
  103ad4:	e51b3010 	ldr	r3, [fp, #-16]
  103ad8:	e5933008 	ldr	r3, [r3, #8]
  103adc:	e50b3028 	str	r3, [fp, #-40]	; 0xffffffd8
                flags = (int)(size_t)cmd->argv[2];
  103ae0:	e51b3010 	ldr	r3, [fp, #-16]
  103ae4:	e593300c 	ldr	r3, [r3, #12]
  103ae8:	e50b302c 	str	r3, [fp, #-44]	; 0xffffffd4
                fromlen = (socklen_t*)cmd->argv[3];
  103aec:	e51b3010 	ldr	r3, [fp, #-16]
  103af0:	e5933010 	ldr	r3, [r3, #16]
  103af4:	e50b3030 	str	r3, [fp, #-48]	; 0xffffffd0
                data = (void *)(size_t)cmd + UNET_CMD_OFFSET;
  103af8:	e51b3010 	ldr	r3, [fp, #-16]
  103afc:	e283301c 	add	r3, r3, #28
  103b00:	e50b3034 	str	r3, [fp, #-52]	; 0xffffffcc

                if(fromlen == RT_NULL)
  103b04:	e51b3030 	ldr	r3, [fp, #-48]	; 0xffffffd0
  103b08:	e3530000 	cmp	r3, #0
  103b0c:	1a000006 	bne	103b2c <stack_run+0x3dc>
                {
                    result = recv_internal(socket, data, size, flags);
  103b10:	e51b302c 	ldr	r3, [fp, #-44]	; 0xffffffd4
  103b14:	e51b2028 	ldr	r2, [fp, #-40]	; 0xffffffd8
  103b18:	e51b1034 	ldr	r1, [fp, #-52]	; 0xffffffcc
  103b1c:	e51b0014 	ldr	r0, [fp, #-20]	; 0xffffffec
  103b20:	eb00170c 	bl	109758 <recv_internal>
  103b24:	e50b0008 	str	r0, [fp, #-8]
  103b28:	ea00000f 	b	103b6c <stack_run+0x41c>
                }
                else
                {
                    psockaddr =  (void *)(size_t)cmd + UNET_CMD_OFFSET + size;
  103b2c:	e51b3028 	ldr	r3, [fp, #-40]	; 0xffffffd8
  103b30:	e283301c 	add	r3, r3, #28
  103b34:	e51b2010 	ldr	r2, [fp, #-16]
  103b38:	e0823003 	add	r3, r2, r3
  103b3c:	e50b3038 	str	r3, [fp, #-56]	; 0xffffffc8
                    result = recvfrom_internal(socket, data, size, flags , psockaddr, fromlen);
  103b40:	e51b202c 	ldr	r2, [fp, #-44]	; 0xffffffd4
  103b44:	e51b3030 	ldr	r3, [fp, #-48]	; 0xffffffd0
  103b48:	e58d3004 	str	r3, [sp, #4]
  103b4c:	e51b3038 	ldr	r3, [fp, #-56]	; 0xffffffc8
  103b50:	e58d3000 	str	r3, [sp]
  103b54:	e1a03002 	mov	r3, r2
  103b58:	e51b2028 	ldr	r2, [fp, #-40]	; 0xffffffd8
  103b5c:	e51b1034 	ldr	r1, [fp, #-52]	; 0xffffffcc
  103b60:	e51b0014 	ldr	r0, [fp, #-20]	; 0xffffffec
  103b64:	eb001712 	bl	1097b4 <recvfrom_internal>
  103b68:	e50b0008 	str	r0, [fp, #-8]
                }

                lwp_shmdt(cmd);
  103b6c:	e51b0010 	ldr	r0, [fp, #-16]
  103b70:	ebfff8f3 	bl	101f44 <lwp_shmdt>
                channel_cmd_reply(stack_channel, (void *)(size_t)result);
  103b74:	e30e3010 	movw	r3, #57360	; 0xe010
  103b78:	e3403014 	movt	r3, #20
  103b7c:	e5933000 	ldr	r3, [r3]
  103b80:	e51b2008 	ldr	r2, [fp, #-8]
  103b84:	e1a01002 	mov	r1, r2
  103b88:	e1a00003 	mov	r0, r3
  103b8c:	ebfffebf 	bl	103690 <channel_cmd_reply>
                break;
  103b90:	ea000023 	b	103c24 <stack_run+0x4d4>
            //     channel_cmd_reply(stack_channel, (void *)(size_t)result);
            //     break;

            case UNET_SRV_CMD_SETSOCKOPT:
            {
                socket = (int)(size_t)cmd->argv[0];
  103b94:	e51b3010 	ldr	r3, [fp, #-16]
  103b98:	e5933004 	ldr	r3, [r3, #4]
  103b9c:	e50b3014 	str	r3, [fp, #-20]	; 0xffffffec
                int level = (int)(size_t)cmd->argv[1];
  103ba0:	e51b3010 	ldr	r3, [fp, #-16]
  103ba4:	e5933008 	ldr	r3, [r3, #8]
  103ba8:	e50b3018 	str	r3, [fp, #-24]	; 0xffffffe8
                int opt = (int)(size_t)cmd->argv[2];
  103bac:	e51b3010 	ldr	r3, [fp, #-16]
  103bb0:	e593300c 	ldr	r3, [r3, #12]
  103bb4:	e50b301c 	str	r3, [fp, #-28]	; 0xffffffe4
                socklen = (socklen_t)(size_t)cmd->argv[3];
  103bb8:	e51b3010 	ldr	r3, [fp, #-16]
  103bbc:	e5933010 	ldr	r3, [r3, #16]
  103bc0:	e50b3020 	str	r3, [fp, #-32]	; 0xffffffe0
                void *optval =  (void *)(size_t)cmd + UNET_CMD_OFFSET;
  103bc4:	e51b3010 	ldr	r3, [fp, #-16]
  103bc8:	e283301c 	add	r3, r3, #28
  103bcc:	e50b3024 	str	r3, [fp, #-36]	; 0xffffffdc

                result = setsockopt_internal(socket, level, opt, optval, socklen);
  103bd0:	e51b3020 	ldr	r3, [fp, #-32]	; 0xffffffe0
  103bd4:	e58d3000 	str	r3, [sp]
  103bd8:	e51b3024 	ldr	r3, [fp, #-36]	; 0xffffffdc
  103bdc:	e51b201c 	ldr	r2, [fp, #-28]	; 0xffffffe4
  103be0:	e51b1018 	ldr	r1, [fp, #-24]	; 0xffffffe8
  103be4:	e51b0014 	ldr	r0, [fp, #-20]	; 0xffffffec
  103be8:	eb0016b6 	bl	1096c8 <setsockopt_internal>
  103bec:	e50b0008 	str	r0, [fp, #-8]

                lwp_shmdt(cmd);
  103bf0:	e51b0010 	ldr	r0, [fp, #-16]
  103bf4:	ebfff8d2 	bl	101f44 <lwp_shmdt>
                channel_cmd_reply(stack_channel, (void *)(size_t)result);
  103bf8:	e30e3010 	movw	r3, #57360	; 0xe010
  103bfc:	e3403014 	movt	r3, #20
  103c00:	e5933000 	ldr	r3, [r3]
  103c04:	e51b2008 	ldr	r2, [fp, #-8]
  103c08:	e1a01002 	mov	r1, r2
  103c0c:	e1a00003 	mov	r0, r3
  103c10:	ebfffe9e 	bl	103690 <channel_cmd_reply>
                break;
  103c14:	ea000002 	b	103c24 <stack_run+0x4d4>
    //             break;

            default :
                break;
            }
        }
  103c18:	e320f000 	nop	{0}
  103c1c:	eafffece 	b	10375c <stack_run+0xc>
                break;
  103c20:	e320f000 	nop	{0}
    {
  103c24:	eafffecc 	b	10375c <stack_run+0xc>

00103c28 <lwipkit_status>:

    return 0;
}

static void lwipkit_status(void)
{
  103c28:	e52db004 	push	{fp}		; (str fp, [sp, #-4]!)
  103c2c:	e28db000 	add	fp, sp, #0
}
  103c30:	e320f000 	nop	{0}
  103c34:	e28bd000 	add	sp, fp, #0
  103c38:	e49db004 	pop	{fp}		; (ldr fp, [sp], #4)
  103c3c:	e12fff1e 	bx	lr

00103c40 <lwipkit_usage>:

/* lwIPKit initialization should be done once at most */
static void lwipkit_usage(void)
{
  103c40:	e92d4800 	push	{fp, lr}
  103c44:	e28db004 	add	fp, sp, #4
    printf("lwIPKit Usage:\n"
  103c48:	e3050740 	movw	r0, #22336	; 0x5740
  103c4c:	e3400014 	movt	r0, #20
  103c50:	eb00eae6 	bl	13e7f0 <puts>
            "\tlwIPKit               :  run lwIPKit, wait for ethdev to attach\n"
            "\tlwIPKit attach   <eth>:  attach the device <eth> to lwIPKit\n"
            "\tlwIPKit deattach <eth>:  de-attach the device <eth> from lwIPKit\n"
            "\tlwIPKit default  <eth>:  set <eth> as the default device\n"
            "\tlwIPKit status        :  show the status of running lwIPKIt\n");
}
  103c54:	e320f000 	nop	{0}
  103c58:	e8bd8800 	pop	{fp, pc}

00103c5c <main>:

/* entry point */
extern void sal_init(void);
extern int dfs_init(void);
int main(int argc, char **argv)
{
  103c5c:	e92d4810 	push	{r4, fp, lr}
  103c60:	e28db008 	add	fp, sp, #8
  103c64:	e24dd034 	sub	sp, sp, #52	; 0x34
  103c68:	e50b0028 	str	r0, [fp, #-40]	; 0xffffffd8
  103c6c:	e50b102c 	str	r1, [fp, #-44]	; 0xffffffd4
    printf("lwipkit pid = %d\n", getpid());
  103c70:	eb00fcd0 	bl	142fb8 <getpid>
  103c74:	e1a03000 	mov	r3, r0
  103c78:	e1a01003 	mov	r1, r3
  103c7c:	e3050888 	movw	r0, #22664	; 0x5888
  103c80:	e3400014 	movt	r0, #20
  103c84:	eb00eacb 	bl	13e7b8 <printf>
    int initialized = 0;
  103c88:	e3a03000 	mov	r3, #0
  103c8c:	e50b3010 	str	r3, [fp, #-16]

    int data_channel = -1;  /* local variable, not the global one */
  103c90:	e3e03000 	mvn	r3, #0
  103c94:	e50b3014 	str	r3, [fp, #-20]	; 0xffffffec
    int shmid = -1;
  103c98:	e3e03000 	mvn	r3, #0
  103c9c:	e50b3018 	str	r3, [fp, #-24]	; 0xffffffe8
    struct channel_cmd *cmd = NULL;
  103ca0:	e3a03000 	mov	r3, #0
  103ca4:	e50b301c 	str	r3, [fp, #-28]	; 0xffffffe4

    /* no arguments, we want to run lwIPKit as a server */
    if (argc < 2)
  103ca8:	e51b3028 	ldr	r3, [fp, #-40]	; 0xffffffd8
  103cac:	e3530001 	cmp	r3, #1
  103cb0:	ca000035 	bgt	103d8c <main+0x130>
    {        
        printf("lwIPKit: starts to run as the server");
  103cb4:	e305089c 	movw	r0, #22684	; 0x589c
  103cb8:	e3400014 	movt	r0, #20
  103cbc:	eb00eabd 	bl	13e7b8 <printf>
        initialized = stack_init();
  103cc0:	ebfffe8b 	bl	1036f4 <stack_init>
  103cc4:	e50b0010 	str	r0, [fp, #-16]
        if (initialized < 0)
  103cc8:	e51b3010 	ldr	r3, [fp, #-16]
  103ccc:	e3530000 	cmp	r3, #0
  103cd0:	aa000004 	bge	103ce8 <main+0x8c>
        {
            printf(" ...failed!\n");
  103cd4:	e30508c4 	movw	r0, #22724	; 0x58c4
  103cd8:	e3400014 	movt	r0, #20
  103cdc:	eb00eac3 	bl	13e7f0 <puts>
            return -1;
  103ce0:	e3e03000 	mvn	r3, #0
  103ce4:	ea0000f7 	b	1040c8 <main+0x46c>
        }
        else if (initialized > 0)   /* valid lwIPKit process exists */
  103ce8:	e51b3010 	ldr	r3, [fp, #-16]
  103cec:	e3530000 	cmp	r3, #0
  103cf0:	da000004 	ble	103d08 <main+0xac>
        {
            printf(" ...skipped! Already initialized\n");
  103cf4:	e30508d0 	movw	r0, #22736	; 0x58d0
  103cf8:	e3400014 	movt	r0, #20
  103cfc:	eb00eabb 	bl	13e7f0 <puts>
            return 0;
  103d00:	e3a03000 	mov	r3, #0
  103d04:	ea0000ef 	b	1040c8 <main+0x46c>
        }
        else
        {
            // netdev_list_init();
            printf(" ...succeeded!\n");
  103d08:	e30508f4 	movw	r0, #22772	; 0x58f4
  103d0c:	e3400014 	movt	r0, #20
  103d10:	eb00eab6 	bl	13e7f0 <puts>

            // rt_thread_t tid = rt_thread_create("ipdata", stack_data_input, NULL, 8192,
            //     25, 10);            /* handle the input data */
            // if (tid) rt_thread_startup(tid);

            printf("lwIPKit: init eth dev...");
  103d14:	e3050904 	movw	r0, #22788	; 0x5904
  103d18:	e3400014 	movt	r0, #20
  103d1c:	eb00eaa5 	bl	13e7b8 <printf>
            const char * eth_name;
            initialized = imx6ul_eth_init(0, &eth_name);
  103d20:	e24b3024 	sub	r3, fp, #36	; 0x24
  103d24:	e1a01003 	mov	r1, r3
  103d28:	e3a00000 	mov	r0, #0
  103d2c:	eb00c72a 	bl	1359dc <imx6ul_eth_init>
  103d30:	e50b0010 	str	r0, [fp, #-16]
            if (initialized < 0)
  103d34:	e51b3010 	ldr	r3, [fp, #-16]
  103d38:	e3530000 	cmp	r3, #0
  103d3c:	aa000004 	bge	103d54 <main+0xf8>
            {
                printf(" ...failed!\n");
  103d40:	e30508c4 	movw	r0, #22724	; 0x58c4
  103d44:	e3400014 	movt	r0, #20
  103d48:	eb00eaa8 	bl	13e7f0 <puts>
                return -1;
  103d4c:	e3e03000 	mvn	r3, #0
  103d50:	ea0000dc 	b	1040c8 <main+0x46c>
            }
            else if (initialized > 0)   /* valid lwIPKit process exists */
  103d54:	e51b3010 	ldr	r3, [fp, #-16]
  103d58:	e3530000 	cmp	r3, #0
  103d5c:	da000004 	ble	103d74 <main+0x118>
            {
                printf(" ...skipped! Already initialized\n");
  103d60:	e30508d0 	movw	r0, #22736	; 0x58d0
  103d64:	e3400014 	movt	r0, #20
  103d68:	eb00eaa0 	bl	13e7f0 <puts>
                return 0;
  103d6c:	e3a03000 	mov	r3, #0
  103d70:	ea0000d4 	b	1040c8 <main+0x46c>
            } 
            else 
            {
                printf("succeeded\n");
  103d74:	e3050920 	movw	r0, #22816	; 0x5920
  103d78:	e3400014 	movt	r0, #20
  103d7c:	eb00ea9b 	bl	13e7f0 <puts>
                dfs_init();
  103d80:	eb001730 	bl	109a48 <dfs_init>
                sal_init();
  103d84:	eb000c20 	bl	106e0c <sal_init>
                // netdev_init(eth_name);
            }

            stack_run();            /* handle network requests, never return */
  103d88:	ebfffe70 	bl	103750 <stack_run>
        }
    }

    /* attach the device */
    if (argc >= 3 && strncmp(argv[1], "attach", 6) == 0)
  103d8c:	e51b3028 	ldr	r3, [fp, #-40]	; 0xffffffd8
  103d90:	e3530002 	cmp	r3, #2
  103d94:	da000050 	ble	103edc <main+0x280>
  103d98:	e51b302c 	ldr	r3, [fp, #-44]	; 0xffffffd4
  103d9c:	e2833004 	add	r3, r3, #4
  103da0:	e5933000 	ldr	r3, [r3]
  103da4:	e3a02006 	mov	r2, #6
  103da8:	e305192c 	movw	r1, #22828	; 0x592c
  103dac:	e3401014 	movt	r1, #20
  103db0:	e1a00003 	mov	r0, r3
  103db4:	eb00f66b 	bl	141768 <strncmp>
  103db8:	e1a03000 	mov	r3, r0
  103dbc:	e3530000 	cmp	r3, #0
  103dc0:	1a000045 	bne	103edc <main+0x280>
    {
        int static_ip = 0;
  103dc4:	e3a03000 	mov	r3, #0
  103dc8:	e50b3020 	str	r3, [fp, #-32]	; 0xffffffe0
        printf("lwIPKit: attach device %s\n", argv[2]);
  103dcc:	e51b302c 	ldr	r3, [fp, #-44]	; 0xffffffd4
  103dd0:	e2833008 	add	r3, r3, #8
  103dd4:	e5933000 	ldr	r3, [r3]
  103dd8:	e1a01003 	mov	r1, r3
  103ddc:	e3050934 	movw	r0, #22836	; 0x5934
  103de0:	e3400014 	movt	r0, #20
  103de4:	eb00ea73 	bl	13e7b8 <printf>

        data_channel = rt_channel_open(data_name, O_RDWR);
  103de8:	e30e3018 	movw	r3, #57368	; 0xe018
  103dec:	e3403014 	movt	r3, #20
  103df0:	e5933000 	ldr	r3, [r3]
  103df4:	e3a01002 	mov	r1, #2
  103df8:	e1a00003 	mov	r0, r3
  103dfc:	ebfff0c5 	bl	100118 <rt_channel_open>
  103e00:	e50b0014 	str	r0, [fp, #-20]	; 0xffffffec
        if (data_channel < 0)
  103e04:	e51b3014 	ldr	r3, [fp, #-20]	; 0xffffffec
  103e08:	e3530000 	cmp	r3, #0
  103e0c:	aa000004 	bge	103e24 <main+0x1c8>
        {
            printf("cannot open data_channel, please make sure lwIPKit server is running!\n");
  103e10:	e3050950 	movw	r0, #22864	; 0x5950
  103e14:	e3400014 	movt	r0, #20
  103e18:	eb00ea74 	bl	13e7f0 <puts>
            return -1;
  103e1c:	e3e03000 	mvn	r3, #0
  103e20:	ea0000a8 	b	1040c8 <main+0x46c>
        }

        shmid = channel_compose_cmd1(UNET_NETDEV_REQ_ATTACH, (void *)(size_t)static_ip, strlen(argv[2]) + 1);
  103e24:	e51b4020 	ldr	r4, [fp, #-32]	; 0xffffffe0
  103e28:	e51b302c 	ldr	r3, [fp, #-44]	; 0xffffffd4
  103e2c:	e2833008 	add	r3, r3, #8
  103e30:	e5933000 	ldr	r3, [r3]
  103e34:	e1a00003 	mov	r0, r3
  103e38:	eb00f61e 	bl	1416b8 <strlen>
  103e3c:	e1a03000 	mov	r3, r0
  103e40:	e2833001 	add	r3, r3, #1
  103e44:	e58d300c 	str	r3, [sp, #12]
  103e48:	e3a03000 	mov	r3, #0
  103e4c:	e58d3008 	str	r3, [sp, #8]
  103e50:	e3a03000 	mov	r3, #0
  103e54:	e58d3004 	str	r3, [sp, #4]
  103e58:	e3a03000 	mov	r3, #0
  103e5c:	e58d3000 	str	r3, [sp]
  103e60:	e3a03000 	mov	r3, #0
  103e64:	e3a02000 	mov	r2, #0
  103e68:	e1a01004 	mov	r1, r4
  103e6c:	e3a00065 	mov	r0, #101	; 0x65
  103e70:	eb000097 	bl	1040d4 <channel_compose_cmd>
  103e74:	e50b0018 	str	r0, [fp, #-24]	; 0xffffffe8
        cmd = (struct channel_cmd*)lwp_shmat(shmid, NULL);
  103e78:	e3a01000 	mov	r1, #0
  103e7c:	e51b0018 	ldr	r0, [fp, #-24]	; 0xffffffe8
  103e80:	ebfff822 	bl	101f10 <lwp_shmat>
  103e84:	e50b001c 	str	r0, [fp, #-28]	; 0xffffffe4
        if (cmd)
  103e88:	e51b301c 	ldr	r3, [fp, #-28]	; 0xffffffe4
  103e8c:	e3530000 	cmp	r3, #0
  103e90:	0a000009 	beq	103ebc <main+0x260>
        {
            strcpy(CHANNEL_CMD_DATA(cmd), argv[2]);
  103e94:	e51b301c 	ldr	r3, [fp, #-28]	; 0xffffffe4
  103e98:	e283201c 	add	r2, r3, #28
  103e9c:	e51b302c 	ldr	r3, [fp, #-44]	; 0xffffffd4
  103ea0:	e2833008 	add	r3, r3, #8
  103ea4:	e5933000 	ldr	r3, [r3]
  103ea8:	e1a01003 	mov	r1, r3
  103eac:	e1a00002 	mov	r0, r2
  103eb0:	eb00f5ef 	bl	141674 <strcpy>
            lwp_shmdt(cmd);
  103eb4:	e51b001c 	ldr	r0, [fp, #-28]	; 0xffffffe4
  103eb8:	ebfff821 	bl	101f44 <lwp_shmdt>
        }
        channel_cmd_send(data_channel, (void *)(size_t)shmid);
  103ebc:	e51b3018 	ldr	r3, [fp, #-24]	; 0xffffffe8
  103ec0:	e1a01003 	mov	r1, r3
  103ec4:	e51b0014 	ldr	r0, [fp, #-20]	; 0xffffffec
  103ec8:	ebfffdc0 	bl	1035d0 <channel_cmd_send>
        rt_channel_close(data_channel);
  103ecc:	e51b0014 	ldr	r0, [fp, #-20]	; 0xffffffec
  103ed0:	ebfff09d 	bl	10014c <rt_channel_close>

        return 0;
  103ed4:	e3a03000 	mov	r3, #0
  103ed8:	ea00007a 	b	1040c8 <main+0x46c>
    }

    /* deattach the device and restore it to the uninitialized state */
    if (argc == 3)
  103edc:	e51b3028 	ldr	r3, [fp, #-40]	; 0xffffffd8
  103ee0:	e3530003 	cmp	r3, #3
  103ee4:	1a000061 	bne	104070 <main+0x414>
    {
        if (strncmp(argv[1], "deattach", 8) == 0)
  103ee8:	e51b302c 	ldr	r3, [fp, #-44]	; 0xffffffd4
  103eec:	e2833004 	add	r3, r3, #4
  103ef0:	e5933000 	ldr	r3, [r3]
  103ef4:	e3a02008 	mov	r2, #8
  103ef8:	e3051998 	movw	r1, #22936	; 0x5998
  103efc:	e3401014 	movt	r1, #20
  103f00:	e1a00003 	mov	r0, r3
  103f04:	eb00f617 	bl	141768 <strncmp>
  103f08:	e1a03000 	mov	r3, r0
  103f0c:	e3530000 	cmp	r3, #0
  103f10:	1a000042 	bne	104020 <main+0x3c4>
        {
            printf("lwIPKit: de-attach device %s\n", argv[2]);
  103f14:	e51b302c 	ldr	r3, [fp, #-44]	; 0xffffffd4
  103f18:	e2833008 	add	r3, r3, #8
  103f1c:	e5933000 	ldr	r3, [r3]
  103f20:	e1a01003 	mov	r1, r3
  103f24:	e30509a4 	movw	r0, #22948	; 0x59a4
  103f28:	e3400014 	movt	r0, #20
  103f2c:	eb00ea21 	bl	13e7b8 <printf>

            data_channel = rt_channel_open(data_name, O_RDWR);
  103f30:	e30e3018 	movw	r3, #57368	; 0xe018
  103f34:	e3403014 	movt	r3, #20
  103f38:	e5933000 	ldr	r3, [r3]
  103f3c:	e3a01002 	mov	r1, #2
  103f40:	e1a00003 	mov	r0, r3
  103f44:	ebfff073 	bl	100118 <rt_channel_open>
  103f48:	e50b0014 	str	r0, [fp, #-20]	; 0xffffffec
            if (data_channel < 0)
  103f4c:	e51b3014 	ldr	r3, [fp, #-20]	; 0xffffffec
  103f50:	e3530000 	cmp	r3, #0
  103f54:	aa000004 	bge	103f6c <main+0x310>
            {
                printf("cannot open data_channel, please make sure lwIPKit server is running!\n");
  103f58:	e3050950 	movw	r0, #22864	; 0x5950
  103f5c:	e3400014 	movt	r0, #20
  103f60:	eb00ea22 	bl	13e7f0 <puts>
                return -1;
  103f64:	e3e03000 	mvn	r3, #0
  103f68:	ea000056 	b	1040c8 <main+0x46c>
            }

            shmid = channel_compose_cmd0(UNET_NETDEV_REQ_DETACH, strlen(argv[2]) + 1);
  103f6c:	e51b302c 	ldr	r3, [fp, #-44]	; 0xffffffd4
  103f70:	e2833008 	add	r3, r3, #8
  103f74:	e5933000 	ldr	r3, [r3]
  103f78:	e1a00003 	mov	r0, r3
  103f7c:	eb00f5cd 	bl	1416b8 <strlen>
  103f80:	e1a03000 	mov	r3, r0
  103f84:	e2833001 	add	r3, r3, #1
  103f88:	e58d300c 	str	r3, [sp, #12]
  103f8c:	e3a03000 	mov	r3, #0
  103f90:	e58d3008 	str	r3, [sp, #8]
  103f94:	e3a03000 	mov	r3, #0
  103f98:	e58d3004 	str	r3, [sp, #4]
  103f9c:	e3a03000 	mov	r3, #0
  103fa0:	e58d3000 	str	r3, [sp]
  103fa4:	e3a03000 	mov	r3, #0
  103fa8:	e3a02000 	mov	r2, #0
  103fac:	e3a01000 	mov	r1, #0
  103fb0:	e3a00066 	mov	r0, #102	; 0x66
  103fb4:	eb000046 	bl	1040d4 <channel_compose_cmd>
  103fb8:	e50b0018 	str	r0, [fp, #-24]	; 0xffffffe8
            cmd = (struct channel_cmd*)lwp_shmat(shmid, NULL);
  103fbc:	e3a01000 	mov	r1, #0
  103fc0:	e51b0018 	ldr	r0, [fp, #-24]	; 0xffffffe8
  103fc4:	ebfff7d1 	bl	101f10 <lwp_shmat>
  103fc8:	e50b001c 	str	r0, [fp, #-28]	; 0xffffffe4
            if (cmd)
  103fcc:	e51b301c 	ldr	r3, [fp, #-28]	; 0xffffffe4
  103fd0:	e3530000 	cmp	r3, #0
  103fd4:	0a000009 	beq	104000 <main+0x3a4>
            {
                strcpy(CHANNEL_CMD_DATA(cmd), argv[2]);
  103fd8:	e51b301c 	ldr	r3, [fp, #-28]	; 0xffffffe4
  103fdc:	e283201c 	add	r2, r3, #28
  103fe0:	e51b302c 	ldr	r3, [fp, #-44]	; 0xffffffd4
  103fe4:	e2833008 	add	r3, r3, #8
  103fe8:	e5933000 	ldr	r3, [r3]
  103fec:	e1a01003 	mov	r1, r3
  103ff0:	e1a00002 	mov	r0, r2
  103ff4:	eb00f59e 	bl	141674 <strcpy>
                lwp_shmdt(cmd);
  103ff8:	e51b001c 	ldr	r0, [fp, #-28]	; 0xffffffe4
  103ffc:	ebfff7d0 	bl	101f44 <lwp_shmdt>
            }
            channel_cmd_send(data_channel, (void *)(size_t)shmid);
  104000:	e51b3018 	ldr	r3, [fp, #-24]	; 0xffffffe8
  104004:	e1a01003 	mov	r1, r3
  104008:	e51b0014 	ldr	r0, [fp, #-20]	; 0xffffffec
  10400c:	ebfffd6f 	bl	1035d0 <channel_cmd_send>
            rt_channel_close(data_channel);
  104010:	e51b0014 	ldr	r0, [fp, #-20]	; 0xffffffec
  104014:	ebfff04c 	bl	10014c <rt_channel_close>

            return 0;
  104018:	e3a03000 	mov	r3, #0
  10401c:	ea000029 	b	1040c8 <main+0x46c>
        }


        if (strncmp(argv[1], "default", 8) == 0)
  104020:	e51b302c 	ldr	r3, [fp, #-44]	; 0xffffffd4
  104024:	e2833004 	add	r3, r3, #4
  104028:	e5933000 	ldr	r3, [r3]
  10402c:	e3a02008 	mov	r2, #8
  104030:	e30519c4 	movw	r1, #22980	; 0x59c4
  104034:	e3401014 	movt	r1, #20
  104038:	e1a00003 	mov	r0, r3
  10403c:	eb00f5c9 	bl	141768 <strncmp>
  104040:	e1a03000 	mov	r3, r0
  104044:	e3530000 	cmp	r3, #0
  104048:	1a000008 	bne	104070 <main+0x414>
        {
            printf("lwIPKit: set the default device %s", argv[2]);
  10404c:	e51b302c 	ldr	r3, [fp, #-44]	; 0xffffffd4
  104050:	e2833008 	add	r3, r3, #8
  104054:	e5933000 	ldr	r3, [r3]
  104058:	e1a01003 	mov	r1, r3
  10405c:	e30509cc 	movw	r0, #22988	; 0x59cc
  104060:	e3400014 	movt	r0, #20
  104064:	eb00e9d3 	bl	13e7b8 <printf>
            //eth_set_default(argv[2]);
            return 0;
  104068:	e3a03000 	mov	r3, #0
  10406c:	ea000015 	b	1040c8 <main+0x46c>
        }
    }

    /* show the status */
    if (argc == 2 && strncmp(argv[1], "status", 6) == 0)
  104070:	e51b3028 	ldr	r3, [fp, #-40]	; 0xffffffd8
  104074:	e3530002 	cmp	r3, #2
  104078:	1a000010 	bne	1040c0 <main+0x464>
  10407c:	e51b302c 	ldr	r3, [fp, #-44]	; 0xffffffd4
  104080:	e2833004 	add	r3, r3, #4
  104084:	e5933000 	ldr	r3, [r3]
  104088:	e3a02006 	mov	r2, #6
  10408c:	e30519f0 	movw	r1, #23024	; 0x59f0
  104090:	e3401014 	movt	r1, #20
  104094:	e1a00003 	mov	r0, r3
  104098:	eb00f5b2 	bl	141768 <strncmp>
  10409c:	e1a03000 	mov	r3, r0
  1040a0:	e3530000 	cmp	r3, #0
  1040a4:	1a000005 	bne	1040c0 <main+0x464>
    {
        printf("lwIPKit: the status of the attached devices as follows\n");
  1040a8:	e30509f8 	movw	r0, #23032	; 0x59f8
  1040ac:	e3400014 	movt	r0, #20
  1040b0:	eb00e9ce 	bl	13e7f0 <puts>
        lwipkit_status();
  1040b4:	ebfffedb 	bl	103c28 <lwipkit_status>
        return 0;
  1040b8:	e3a03000 	mov	r3, #0
  1040bc:	ea000001 	b	1040c8 <main+0x46c>
    }

    lwipkit_usage();
  1040c0:	ebfffede 	bl	103c40 <lwipkit_usage>
    return -1;
  1040c4:	e3e03000 	mvn	r3, #0
}
  1040c8:	e1a00003 	mov	r0, r3
  1040cc:	e24bd008 	sub	sp, fp, #8
  1040d0:	e8bd8810 	pop	{r4, fp, pc}

001040d4 <channel_compose_cmd>:
#include "channel.h"

static int _shm_key = -1;
int channel_compose_cmd(uint32_t cmd, void *arg0, void *arg1, void *arg2,
    void *arg3, void *arg4, void *arg5, size_t datalen)
{
  1040d4:	e92d4800 	push	{fp, lr}
  1040d8:	e28db004 	add	fp, sp, #4
  1040dc:	e24dd020 	sub	sp, sp, #32
  1040e0:	e50b0018 	str	r0, [fp, #-24]	; 0xffffffe8
  1040e4:	e50b101c 	str	r1, [fp, #-28]	; 0xffffffe4
  1040e8:	e50b2020 	str	r2, [fp, #-32]	; 0xffffffe0
  1040ec:	e50b3024 	str	r3, [fp, #-36]	; 0xffffffdc
    int shmid;
    void *shm_vaddr = NULL;
  1040f0:	e3a03000 	mov	r3, #0
  1040f4:	e50b3008 	str	r3, [fp, #-8]
    struct channel_cmd *pcmd = NULL;
  1040f8:	e3a03000 	mov	r3, #0
  1040fc:	e50b300c 	str	r3, [fp, #-12]

    /* the shared memory includes the command and the possible data */
    size_t len = datalen + CHANNEL_CMD_OFFSET;
  104100:	e59b3010 	ldr	r3, [fp, #16]
  104104:	e283301c 	add	r3, r3, #28
  104108:	e50b3010 	str	r3, [fp, #-16]

    /* use the current thread ID to label the shared memory */
    if (_shm_key == -1)_shm_key = (int)(unsigned long)rt_thread_self();
  10410c:	e30e301c 	movw	r3, #57372	; 0xe01c
  104110:	e3403014 	movt	r3, #20
  104114:	e5933000 	ldr	r3, [r3]
  104118:	e3730001 	cmn	r3, #1
  10411c:	1a000005 	bne	104138 <channel_compose_cmd+0x64>
  104120:	ebfff833 	bl	1021f4 <rt_thread_self>
  104124:	e1a03000 	mov	r3, r0
  104128:	e1a02003 	mov	r2, r3
  10412c:	e30e301c 	movw	r3, #57372	; 0xe01c
  104130:	e3403014 	movt	r3, #20
  104134:	e5832000 	str	r2, [r3]
    _shm_key = _shm_key + 2;
  104138:	e30e301c 	movw	r3, #57372	; 0xe01c
  10413c:	e3403014 	movt	r3, #20
  104140:	e5933000 	ldr	r3, [r3]
  104144:	e2832002 	add	r2, r3, #2
  104148:	e30e301c 	movw	r3, #57372	; 0xe01c
  10414c:	e3403014 	movt	r3, #20
  104150:	e5832000 	str	r2, [r3]

    shmid = lwp_shmget(_shm_key, len, 1);    /* create a new shared-memory */
  104154:	e30e301c 	movw	r3, #57372	; 0xe01c
  104158:	e3403014 	movt	r3, #20
  10415c:	e5933000 	ldr	r3, [r3]
  104160:	e3a02001 	mov	r2, #1
  104164:	e51b1010 	ldr	r1, [fp, #-16]
  104168:	e1a00003 	mov	r0, r3
  10416c:	ebfff74d 	bl	101ea8 <lwp_shmget>
  104170:	e50b0014 	str	r0, [fp, #-20]	; 0xffffffec
    if (shmid == -1)
  104174:	e51b3014 	ldr	r3, [fp, #-20]	; 0xffffffec
  104178:	e3730001 	cmn	r3, #1
  10417c:	1a00000a 	bne	1041ac <channel_compose_cmd+0xd8>
    {
        rt_kprintf("%s :Fail to allocate a shared memory! _shm_key %ld\n",__func__,_shm_key);
  104180:	e30e301c 	movw	r3, #57372	; 0xe01c
  104184:	e3403014 	movt	r3, #20
  104188:	e5933000 	ldr	r3, [r3]
  10418c:	e1a02003 	mov	r2, r3
  104190:	e3051ae8 	movw	r1, #23272	; 0x5ae8
  104194:	e3401014 	movt	r1, #20
  104198:	e3050a78 	movw	r0, #23160	; 0x5a78
  10419c:	e3400014 	movt	r0, #20
  1041a0:	ebfffbdb 	bl	103114 <rt_kprintf>
        return -1;
  1041a4:	e3e03000 	mvn	r3, #0
  1041a8:	ea000027 	b	10424c <channel_compose_cmd+0x178>
    }

    /* get the start address of the shared memory */
    shm_vaddr = lwp_shmat(shmid, NULL);
  1041ac:	e3a01000 	mov	r1, #0
  1041b0:	e51b0014 	ldr	r0, [fp, #-20]	; 0xffffffec
  1041b4:	ebfff755 	bl	101f10 <lwp_shmat>
  1041b8:	e50b0008 	str	r0, [fp, #-8]
    if (shm_vaddr == NULL)
  1041bc:	e51b3008 	ldr	r3, [fp, #-8]
  1041c0:	e3530000 	cmp	r3, #0
  1041c4:	1a000006 	bne	1041e4 <channel_compose_cmd+0x110>
    {
        printf("The allocated shared memory doesn't have a valid address!\n");
  1041c8:	e3050aac 	movw	r0, #23212	; 0x5aac
  1041cc:	e3400014 	movt	r0, #20
  1041d0:	eb00e986 	bl	13e7f0 <puts>
        lwp_shmrm(shmid);
  1041d4:	e51b0014 	ldr	r0, [fp, #-20]	; 0xffffffec
  1041d8:	ebfff741 	bl	101ee4 <lwp_shmrm>
        return -1;
  1041dc:	e3e03000 	mvn	r3, #0
  1041e0:	ea000019 	b	10424c <channel_compose_cmd+0x178>
    }

    /* prepare the command structure */
    pcmd = (struct channel_cmd *) shm_vaddr;
  1041e4:	e51b3008 	ldr	r3, [fp, #-8]
  1041e8:	e50b300c 	str	r3, [fp, #-12]

    pcmd->cmd = cmd;
  1041ec:	e51b300c 	ldr	r3, [fp, #-12]
  1041f0:	e51b2018 	ldr	r2, [fp, #-24]	; 0xffffffe8
  1041f4:	e5832000 	str	r2, [r3]
    pcmd->argv[0] = arg0;
  1041f8:	e51b300c 	ldr	r3, [fp, #-12]
  1041fc:	e51b201c 	ldr	r2, [fp, #-28]	; 0xffffffe4
  104200:	e5832004 	str	r2, [r3, #4]
    pcmd->argv[1] = arg1;
  104204:	e51b300c 	ldr	r3, [fp, #-12]
  104208:	e51b2020 	ldr	r2, [fp, #-32]	; 0xffffffe0
  10420c:	e5832008 	str	r2, [r3, #8]
    pcmd->argv[2] = arg2;
  104210:	e51b300c 	ldr	r3, [fp, #-12]
  104214:	e51b2024 	ldr	r2, [fp, #-36]	; 0xffffffdc
  104218:	e583200c 	str	r2, [r3, #12]
    pcmd->argv[3] = arg3;
  10421c:	e51b300c 	ldr	r3, [fp, #-12]
  104220:	e59b2004 	ldr	r2, [fp, #4]
  104224:	e5832010 	str	r2, [r3, #16]
    pcmd->argv[4] = arg4;
  104228:	e51b300c 	ldr	r3, [fp, #-12]
  10422c:	e59b2008 	ldr	r2, [fp, #8]
  104230:	e5832014 	str	r2, [r3, #20]
    pcmd->argv[5] = arg5;
  104234:	e51b300c 	ldr	r3, [fp, #-12]
  104238:	e59b200c 	ldr	r2, [fp, #12]
  10423c:	e5832018 	str	r2, [r3, #24]

    lwp_shmdt(shm_vaddr);
  104240:	e51b0008 	ldr	r0, [fp, #-8]
  104244:	ebfff73e 	bl	101f44 <lwp_shmdt>

    return shmid;
  104248:	e51b3014 	ldr	r3, [fp, #-20]	; 0xffffffec
}
  10424c:	e1a00003 	mov	r0, r3
  104250:	e24bd004 	sub	sp, fp, #4
  104254:	e8bd8800 	pop	{fp, pc}

00104258 <channel_cmd_send_recv>:
{
  104258:	e92d4800 	push	{fp, lr}
  10425c:	e28db004 	add	fp, sp, #4
  104260:	e24dd018 	sub	sp, sp, #24
  104264:	e50b0018 	str	r0, [fp, #-24]	; 0xffffffe8
  104268:	e50b101c 	str	r1, [fp, #-28]	; 0xffffffe4
    RT_ASSERT(channel >= 0);
  10426c:	e51b3018 	ldr	r3, [fp, #-24]	; 0xffffffe8
  104270:	e3530000 	cmp	r3, #0
  104274:	aa000005 	bge	104290 <channel_cmd_send_recv+0x38>
  104278:	e3a0200a 	mov	r2, #10
  10427c:	e3051b48 	movw	r1, #23368	; 0x5b48
  104280:	e3401014 	movt	r1, #20
  104284:	e3050afc 	movw	r0, #23292	; 0x5afc
  104288:	e3400014 	movt	r0, #20
  10428c:	ebfffcc1 	bl	103598 <rt_assert_handler>
    chn_msg.type   = RT_CHANNEL_RAW;
  104290:	e3a03000 	mov	r3, #0
  104294:	e50b3010 	str	r3, [fp, #-16]
    chn_msg.u.d    = cmd;
  104298:	e51b301c 	ldr	r3, [fp, #-28]	; 0xffffffe4
  10429c:	e50b300c 	str	r3, [fp, #-12]
    rt_channel_send_recv(channel, &chn_msg, &chn_msg);
  1042a0:	e24b2014 	sub	r2, fp, #20
  1042a4:	e24b3014 	sub	r3, fp, #20
  1042a8:	e1a01003 	mov	r1, r3
  1042ac:	e51b0018 	ldr	r0, [fp, #-24]	; 0xffffffe8
  1042b0:	ebffefb0 	bl	100178 <rt_channel_send_recv>
    return chn_msg.u.d;
  1042b4:	e51b300c 	ldr	r3, [fp, #-12]
}
  1042b8:	e1a00003 	mov	r0, r3
  1042bc:	e24bd004 	sub	sp, fp, #4
  1042c0:	e8bd8800 	pop	{fp, pc}

001042c4 <channel_cmd_recv>:
{
  1042c4:	e92d4800 	push	{fp, lr}
  1042c8:	e28db004 	add	fp, sp, #4
  1042cc:	e24dd018 	sub	sp, sp, #24
  1042d0:	e50b0018 	str	r0, [fp, #-24]	; 0xffffffe8
    RT_ASSERT(channel >= 0);
  1042d4:	e51b3018 	ldr	r3, [fp, #-24]	; 0xffffffe8
  1042d8:	e3530000 	cmp	r3, #0
  1042dc:	aa000005 	bge	1042f8 <channel_cmd_recv+0x34>
  1042e0:	e3a02027 	mov	r2, #39	; 0x27
  1042e4:	e3051b34 	movw	r1, #23348	; 0x5b34
  1042e8:	e3401014 	movt	r1, #20
  1042ec:	e3050afc 	movw	r0, #23292	; 0x5afc
  1042f0:	e3400014 	movt	r0, #20
  1042f4:	ebfffca7 	bl	103598 <rt_assert_handler>
    chn_msg.type = RT_CHANNEL_RAW;
  1042f8:	e3a03000 	mov	r3, #0
  1042fc:	e50b3010 	str	r3, [fp, #-16]
    rt_channel_recv(channel, &chn_msg);
  104300:	e24b3014 	sub	r3, fp, #20
  104304:	e1a01003 	mov	r1, r3
  104308:	e51b0018 	ldr	r0, [fp, #-24]	; 0xffffffe8
  10430c:	ebffefd6 	bl	10026c <rt_channel_recv>
    return chn_msg.u.d;
  104310:	e51b300c 	ldr	r3, [fp, #-12]
}
  104314:	e1a00003 	mov	r0, r3
  104318:	e24bd004 	sub	sp, fp, #4
  10431c:	e8bd8800 	pop	{fp, pc}

00104320 <ipc_service_init>:
const char *ueth_srv_name = "ueth_srv";
static int ueth_int_channel = -1;
const char *ueth_int_name = "ueth_int";

rt_err_t ipc_service_init()
{
  104320:	e92d4800 	push	{fp, lr}
  104324:	e28db004 	add	fp, sp, #4
    ueth_ueth_srv_channel = rt_channel_open(ueth_srv_name, O_RDWR);
  104328:	e30e3024 	movw	r3, #57380	; 0xe024
  10432c:	e3403014 	movt	r3, #20
  104330:	e5933000 	ldr	r3, [r3]
  104334:	e3a01002 	mov	r1, #2
  104338:	e1a00003 	mov	r0, r3
  10433c:	ebffef75 	bl	100118 <rt_channel_open>
  104340:	e1a02000 	mov	r2, r0
  104344:	e30e3020 	movw	r3, #57376	; 0xe020
  104348:	e3403014 	movt	r3, #20
  10434c:	e5832000 	str	r2, [r3]
    if (ueth_ueth_srv_channel < 0)
  104350:	e30e3020 	movw	r3, #57376	; 0xe020
  104354:	e3403014 	movt	r3, #20
  104358:	e5933000 	ldr	r3, [r3]
  10435c:	e3530000 	cmp	r3, #0
  104360:	aa000008 	bge	104388 <ipc_service_init+0x68>
    {
        printf("open %s failed\n", ueth_srv_name);
  104364:	e30e3024 	movw	r3, #57380	; 0xe024
  104368:	e3403014 	movt	r3, #20
  10436c:	e5933000 	ldr	r3, [r3]
  104370:	e1a01003 	mov	r1, r3
  104374:	e3050b24 	movw	r0, #23332	; 0x5b24
  104378:	e3400014 	movt	r0, #20
  10437c:	eb00e90d 	bl	13e7b8 <printf>
        return RT_ERROR;
  104380:	e3a03001 	mov	r3, #1
  104384:	ea000018 	b	1043ec <ipc_service_init+0xcc>
    }

    ueth_int_channel = rt_channel_open(ueth_int_name, O_RDWR);
  104388:	e30e302c 	movw	r3, #57388	; 0xe02c
  10438c:	e3403014 	movt	r3, #20
  104390:	e5933000 	ldr	r3, [r3]
  104394:	e3a01002 	mov	r1, #2
  104398:	e1a00003 	mov	r0, r3
  10439c:	ebffef5d 	bl	100118 <rt_channel_open>
  1043a0:	e1a02000 	mov	r2, r0
  1043a4:	e30e3028 	movw	r3, #57384	; 0xe028
  1043a8:	e3403014 	movt	r3, #20
  1043ac:	e5832000 	str	r2, [r3]
    if (ueth_int_channel < 0)
  1043b0:	e30e3028 	movw	r3, #57384	; 0xe028
  1043b4:	e3403014 	movt	r3, #20
  1043b8:	e5933000 	ldr	r3, [r3]
  1043bc:	e3530000 	cmp	r3, #0
  1043c0:	aa000008 	bge	1043e8 <ipc_service_init+0xc8>
    {
        printf("open %s failed\n", ueth_int_name);
  1043c4:	e30e302c 	movw	r3, #57388	; 0xe02c
  1043c8:	e3403014 	movt	r3, #20
  1043cc:	e5933000 	ldr	r3, [r3]
  1043d0:	e1a01003 	mov	r1, r3
  1043d4:	e3050b24 	movw	r0, #23332	; 0x5b24
  1043d8:	e3400014 	movt	r0, #20
  1043dc:	eb00e8f5 	bl	13e7b8 <printf>
        return RT_ERROR;
  1043e0:	e3a03001 	mov	r3, #1
  1043e4:	ea000000 	b	1043ec <ipc_service_init+0xcc>
    }

    return RT_EOK;
  1043e8:	e3a03000 	mov	r3, #0
}
  1043ec:	e1a00003 	mov	r0, r3
  1043f0:	e8bd8800 	pop	{fp, pc}

001043f4 <ueth_int_recv>:

void ueth_int_recv(void)
{
  1043f4:	e92d4800 	push	{fp, lr}
  1043f8:	e28db004 	add	fp, sp, #4
    channel_cmd_recv(ueth_int_channel);
  1043fc:	e30e3028 	movw	r3, #57384	; 0xe028
  104400:	e3403014 	movt	r3, #20
  104404:	e5933000 	ldr	r3, [r3]
  104408:	e1a00003 	mov	r0, r3
  10440c:	ebffffac 	bl	1042c4 <channel_cmd_recv>
}
  104410:	e320f000 	nop	{0}
  104414:	e8bd8800 	pop	{fp, pc}

00104418 <ueth_v2p>:

void *ueth_v2p(void * addr)
{
  104418:	e92d4800 	push	{fp, lr}
  10441c:	e28db004 	add	fp, sp, #4
  104420:	e24dd028 	sub	sp, sp, #40	; 0x28
  104424:	e50b0018 	str	r0, [fp, #-24]	; 0xffffffe8
    void* thread_self = rt_thread_self();
  104428:	ebfff771 	bl	1021f4 <rt_thread_self>
  10442c:	e50b000c 	str	r0, [fp, #-12]
    int shmid = channel_compose_cmd3(UETH_V2P_REQ, (void*)0, thread_self, addr, 0);
  104430:	e3a03000 	mov	r3, #0
  104434:	e58d300c 	str	r3, [sp, #12]
  104438:	e3a03000 	mov	r3, #0
  10443c:	e58d3008 	str	r3, [sp, #8]
  104440:	e3a03000 	mov	r3, #0
  104444:	e58d3004 	str	r3, [sp, #4]
  104448:	e3a03000 	mov	r3, #0
  10444c:	e58d3000 	str	r3, [sp]
  104450:	e51b3018 	ldr	r3, [fp, #-24]	; 0xffffffe8
  104454:	e51b200c 	ldr	r2, [fp, #-12]
  104458:	e3a01000 	mov	r1, #0
  10445c:	e3a00005 	mov	r0, #5
  104460:	ebffff1b 	bl	1040d4 <channel_compose_cmd>
  104464:	e50b0010 	str	r0, [fp, #-16]
    void *res = RT_NULL;
  104468:	e3a03000 	mov	r3, #0
  10446c:	e50b3008 	str	r3, [fp, #-8]
    struct channel_cmd *cmd  = (struct channel_cmd *)lwp_shmat(shmid, NULL);
  104470:	e3a01000 	mov	r1, #0
  104474:	e51b0010 	ldr	r0, [fp, #-16]
  104478:	ebfff6a4 	bl	101f10 <lwp_shmat>
  10447c:	e50b0014 	str	r0, [fp, #-20]	; 0xffffffec
    if (cmd) 
  104480:	e51b3014 	ldr	r3, [fp, #-20]	; 0xffffffec
  104484:	e3530000 	cmp	r3, #0
  104488:	0a000009 	beq	1044b4 <ueth_v2p+0x9c>
    {
        res = channel_cmd_send_recv(ueth_ueth_srv_channel, (void*)(size_t)shmid);
  10448c:	e30e3020 	movw	r3, #57376	; 0xe020
  104490:	e3403014 	movt	r3, #20
  104494:	e5933000 	ldr	r3, [r3]
  104498:	e51b2010 	ldr	r2, [fp, #-16]
  10449c:	e1a01002 	mov	r1, r2
  1044a0:	e1a00003 	mov	r0, r3
  1044a4:	ebffff6b 	bl	104258 <channel_cmd_send_recv>
  1044a8:	e50b0008 	str	r0, [fp, #-8]
        lwp_shmdt(cmd);
  1044ac:	e51b0014 	ldr	r0, [fp, #-20]	; 0xffffffec
  1044b0:	ebfff6a3 	bl	101f44 <lwp_shmdt>
    }

    lwp_shmrm(shmid);
  1044b4:	e51b0010 	ldr	r0, [fp, #-16]
  1044b8:	ebfff689 	bl	101ee4 <lwp_shmrm>
    return res;
  1044bc:	e51b3008 	ldr	r3, [fp, #-8]

}
  1044c0:	e1a00003 	mov	r0, r3
  1044c4:	e24bd004 	sub	sp, fp, #4
  1044c8:	e8bd8800 	pop	{fp, pc}

001044cc <ueth_remap>:

void *ueth_remap(void * addr, int type, size_t size) 
{
  1044cc:	e92d4800 	push	{fp, lr}
  1044d0:	e28db004 	add	fp, sp, #4
  1044d4:	e24dd030 	sub	sp, sp, #48	; 0x30
  1044d8:	e50b0018 	str	r0, [fp, #-24]	; 0xffffffe8
  1044dc:	e50b101c 	str	r1, [fp, #-28]	; 0xffffffe4
  1044e0:	e50b2020 	str	r2, [fp, #-32]	; 0xffffffe0
    void* thread_self = rt_thread_self();
  1044e4:	ebfff742 	bl	1021f4 <rt_thread_self>
  1044e8:	e50b000c 	str	r0, [fp, #-12]
    int shmid = channel_compose_cmd4(UETH_REMAP_REQ, (void*)0, thread_self, (void*)type, addr, sizeof(size_t));
  1044ec:	e51b201c 	ldr	r2, [fp, #-28]	; 0xffffffe4
  1044f0:	e3a03004 	mov	r3, #4
  1044f4:	e58d300c 	str	r3, [sp, #12]
  1044f8:	e3a03000 	mov	r3, #0
  1044fc:	e58d3008 	str	r3, [sp, #8]
  104500:	e3a03000 	mov	r3, #0
  104504:	e58d3004 	str	r3, [sp, #4]
  104508:	e51b3018 	ldr	r3, [fp, #-24]	; 0xffffffe8
  10450c:	e58d3000 	str	r3, [sp]
  104510:	e1a03002 	mov	r3, r2
  104514:	e51b200c 	ldr	r2, [fp, #-12]
  104518:	e3a01000 	mov	r1, #0
  10451c:	e3a00001 	mov	r0, #1
  104520:	ebfffeeb 	bl	1040d4 <channel_compose_cmd>
  104524:	e50b0010 	str	r0, [fp, #-16]
    void *res = RT_NULL;
  104528:	e3a03000 	mov	r3, #0
  10452c:	e50b3008 	str	r3, [fp, #-8]
    struct channel_cmd *cmd  = (struct channel_cmd *)lwp_shmat(shmid, NULL);
  104530:	e3a01000 	mov	r1, #0
  104534:	e51b0010 	ldr	r0, [fp, #-16]
  104538:	ebfff674 	bl	101f10 <lwp_shmat>
  10453c:	e50b0014 	str	r0, [fp, #-20]	; 0xffffffec
    if (cmd) 
  104540:	e51b3014 	ldr	r3, [fp, #-20]	; 0xffffffec
  104544:	e3530000 	cmp	r3, #0
  104548:	0a00000d 	beq	104584 <ueth_remap+0xb8>
    {
        memcpy(CHANNEL_CMD_DATA(cmd), (void*)&size, sizeof(size_t));
  10454c:	e51b3014 	ldr	r3, [fp, #-20]	; 0xffffffec
  104550:	e283301c 	add	r3, r3, #28
  104554:	e51b2020 	ldr	r2, [fp, #-32]	; 0xffffffe0
  104558:	e5832000 	str	r2, [r3]
        res = channel_cmd_send_recv(ueth_ueth_srv_channel, (void*)(size_t)shmid);
  10455c:	e30e3020 	movw	r3, #57376	; 0xe020
  104560:	e3403014 	movt	r3, #20
  104564:	e5933000 	ldr	r3, [r3]
  104568:	e51b2010 	ldr	r2, [fp, #-16]
  10456c:	e1a01002 	mov	r1, r2
  104570:	e1a00003 	mov	r0, r3
  104574:	ebffff37 	bl	104258 <channel_cmd_send_recv>
  104578:	e50b0008 	str	r0, [fp, #-8]
        lwp_shmdt(cmd);
  10457c:	e51b0014 	ldr	r0, [fp, #-20]	; 0xffffffec
  104580:	ebfff66f 	bl	101f44 <lwp_shmdt>
    }

    lwp_shmrm(shmid);
  104584:	e51b0010 	ldr	r0, [fp, #-16]
  104588:	ebfff655 	bl	101ee4 <lwp_shmrm>
    return res;
  10458c:	e51b3008 	ldr	r3, [fp, #-8]
}
  104590:	e1a00003 	mov	r0, r3
  104594:	e24bd004 	sub	sp, fp, #4
  104598:	e8bd8800 	pop	{fp, pc}

0010459c <ueth_gpioinit>:

void ueth_gpioinit(void *gpio, size_t size) 
{
  10459c:	e92d4800 	push	{fp, lr}
  1045a0:	e28db004 	add	fp, sp, #4
  1045a4:	e24dd020 	sub	sp, sp, #32
  1045a8:	e50b0010 	str	r0, [fp, #-16]
  1045ac:	e50b1014 	str	r1, [fp, #-20]	; 0xffffffec
    int shmid = channel_compose_cmd1(UETH_GPIOINIT_REQ, (void*)0, size);
  1045b0:	e51b3014 	ldr	r3, [fp, #-20]	; 0xffffffec
  1045b4:	e58d300c 	str	r3, [sp, #12]
  1045b8:	e3a03000 	mov	r3, #0
  1045bc:	e58d3008 	str	r3, [sp, #8]
  1045c0:	e3a03000 	mov	r3, #0
  1045c4:	e58d3004 	str	r3, [sp, #4]
  1045c8:	e3a03000 	mov	r3, #0
  1045cc:	e58d3000 	str	r3, [sp]
  1045d0:	e3a03000 	mov	r3, #0
  1045d4:	e3a02000 	mov	r2, #0
  1045d8:	e3a01000 	mov	r1, #0
  1045dc:	e3a00002 	mov	r0, #2
  1045e0:	ebfffebb 	bl	1040d4 <channel_compose_cmd>
  1045e4:	e50b0008 	str	r0, [fp, #-8]
    struct channel_cmd *cmd = (struct channel_cmd*)lwp_shmat(shmid, NULL);
  1045e8:	e3a01000 	mov	r1, #0
  1045ec:	e51b0008 	ldr	r0, [fp, #-8]
  1045f0:	ebfff646 	bl	101f10 <lwp_shmat>
  1045f4:	e50b000c 	str	r0, [fp, #-12]
    if (cmd)
  1045f8:	e51b300c 	ldr	r3, [fp, #-12]
  1045fc:	e3530000 	cmp	r3, #0
  104600:	0a00000e 	beq	104640 <ueth_gpioinit+0xa4>
    {
        memcpy(CHANNEL_CMD_DATA(cmd), gpio, size);
  104604:	e51b300c 	ldr	r3, [fp, #-12]
  104608:	e283301c 	add	r3, r3, #28
  10460c:	e51b2014 	ldr	r2, [fp, #-20]	; 0xffffffec
  104610:	e51b1010 	ldr	r1, [fp, #-16]
  104614:	e1a00003 	mov	r0, r3
  104618:	eb00f25d 	bl	140f94 <memcpy>
        channel_cmd_send_recv(ueth_ueth_srv_channel, (void *)(size_t)shmid);
  10461c:	e30e3020 	movw	r3, #57376	; 0xe020
  104620:	e3403014 	movt	r3, #20
  104624:	e5933000 	ldr	r3, [r3]
  104628:	e51b2008 	ldr	r2, [fp, #-8]
  10462c:	e1a01002 	mov	r1, r2
  104630:	e1a00003 	mov	r0, r3
  104634:	ebffff07 	bl	104258 <channel_cmd_send_recv>
        lwp_shmdt(cmd);
  104638:	e51b000c 	ldr	r0, [fp, #-12]
  10463c:	ebfff640 	bl	101f44 <lwp_shmdt>
    }

    lwp_shmrm(shmid);
  104640:	e51b0008 	ldr	r0, [fp, #-8]
  104644:	ebfff626 	bl	101ee4 <lwp_shmrm>
}
  104648:	e320f000 	nop	{0}
  10464c:	e24bd004 	sub	sp, fp, #4
  104650:	e8bd8800 	pop	{fp, pc}

00104654 <ueth_init_clock>:

void ueth_init_clock() 
{
  104654:	e92d4800 	push	{fp, lr}
  104658:	e28db004 	add	fp, sp, #4
  10465c:	e24dd018 	sub	sp, sp, #24
    int shmid = channel_compose_cmd1(UETH_CLOCKINIT_REQ, (void*)0, 0);
  104660:	e3a03000 	mov	r3, #0
  104664:	e58d300c 	str	r3, [sp, #12]
  104668:	e3a03000 	mov	r3, #0
  10466c:	e58d3008 	str	r3, [sp, #8]
  104670:	e3a03000 	mov	r3, #0
  104674:	e58d3004 	str	r3, [sp, #4]
  104678:	e3a03000 	mov	r3, #0
  10467c:	e58d3000 	str	r3, [sp]
  104680:	e3a03000 	mov	r3, #0
  104684:	e3a02000 	mov	r2, #0
  104688:	e3a01000 	mov	r1, #0
  10468c:	e3a00003 	mov	r0, #3
  104690:	ebfffe8f 	bl	1040d4 <channel_compose_cmd>
  104694:	e50b0008 	str	r0, [fp, #-8]
    struct channel_cmd *cmd = (struct channel_cmd*)lwp_shmat(shmid, NULL);
  104698:	e3a01000 	mov	r1, #0
  10469c:	e51b0008 	ldr	r0, [fp, #-8]
  1046a0:	ebfff61a 	bl	101f10 <lwp_shmat>
  1046a4:	e50b000c 	str	r0, [fp, #-12]
    if (cmd)
  1046a8:	e51b300c 	ldr	r3, [fp, #-12]
  1046ac:	e3530000 	cmp	r3, #0
  1046b0:	0a000008 	beq	1046d8 <ueth_init_clock+0x84>
    {
        channel_cmd_send_recv(ueth_ueth_srv_channel, (void *)(size_t)shmid);
  1046b4:	e30e3020 	movw	r3, #57376	; 0xe020
  1046b8:	e3403014 	movt	r3, #20
  1046bc:	e5933000 	ldr	r3, [r3]
  1046c0:	e51b2008 	ldr	r2, [fp, #-8]
  1046c4:	e1a01002 	mov	r1, r2
  1046c8:	e1a00003 	mov	r0, r3
  1046cc:	ebfffee1 	bl	104258 <channel_cmd_send_recv>
        lwp_shmdt(cmd);
  1046d0:	e51b000c 	ldr	r0, [fp, #-12]
  1046d4:	ebfff61a 	bl	101f44 <lwp_shmdt>
    }

    lwp_shmrm(shmid);
  1046d8:	e51b0008 	ldr	r0, [fp, #-8]
  1046dc:	ebfff600 	bl	101ee4 <lwp_shmrm>
}
  1046e0:	e320f000 	nop	{0}
  1046e4:	e24bd004 	sub	sp, fp, #4
  1046e8:	e8bd8800 	pop	{fp, pc}

001046ec <ueth_dcache_clean>:

void ueth_dcache_clean(void *paddr, size_t size)
{
  1046ec:	e92d4800 	push	{fp, lr}
  1046f0:	e28db004 	add	fp, sp, #4
  1046f4:	e24dd020 	sub	sp, sp, #32
  1046f8:	e50b0010 	str	r0, [fp, #-16]
  1046fc:	e50b1014 	str	r1, [fp, #-20]	; 0xffffffec
    int shmid = channel_compose_cmd3(UETH_DCACHE_REQ, (void*)0, (void*)UETH_DCACHE_CLEAN, paddr, sizeof(size_t));
  104700:	e3a03004 	mov	r3, #4
  104704:	e58d300c 	str	r3, [sp, #12]
  104708:	e3a03000 	mov	r3, #0
  10470c:	e58d3008 	str	r3, [sp, #8]
  104710:	e3a03000 	mov	r3, #0
  104714:	e58d3004 	str	r3, [sp, #4]
  104718:	e3a03000 	mov	r3, #0
  10471c:	e58d3000 	str	r3, [sp]
  104720:	e51b3010 	ldr	r3, [fp, #-16]
  104724:	e3a02001 	mov	r2, #1
  104728:	e3a01000 	mov	r1, #0
  10472c:	e3a00004 	mov	r0, #4
  104730:	ebfffe67 	bl	1040d4 <channel_compose_cmd>
  104734:	e50b0008 	str	r0, [fp, #-8]
    struct channel_cmd *cmd = (struct channel_cmd*)lwp_shmat(shmid, NULL);
  104738:	e3a01000 	mov	r1, #0
  10473c:	e51b0008 	ldr	r0, [fp, #-8]
  104740:	ebfff5f2 	bl	101f10 <lwp_shmat>
  104744:	e50b000c 	str	r0, [fp, #-12]
    if (cmd)
  104748:	e51b300c 	ldr	r3, [fp, #-12]
  10474c:	e3530000 	cmp	r3, #0
  104750:	0a00000c 	beq	104788 <ueth_dcache_clean+0x9c>
    {
        memcpy(CHANNEL_CMD_DATA(cmd), (void*)&size, sizeof(size_t));
  104754:	e51b300c 	ldr	r3, [fp, #-12]
  104758:	e283301c 	add	r3, r3, #28
  10475c:	e51b2014 	ldr	r2, [fp, #-20]	; 0xffffffec
  104760:	e5832000 	str	r2, [r3]
        channel_cmd_send_recv(ueth_ueth_srv_channel, (void *)(size_t)shmid);
  104764:	e30e3020 	movw	r3, #57376	; 0xe020
  104768:	e3403014 	movt	r3, #20
  10476c:	e5933000 	ldr	r3, [r3]
  104770:	e51b2008 	ldr	r2, [fp, #-8]
  104774:	e1a01002 	mov	r1, r2
  104778:	e1a00003 	mov	r0, r3
  10477c:	ebfffeb5 	bl	104258 <channel_cmd_send_recv>
        lwp_shmdt(cmd);
  104780:	e51b000c 	ldr	r0, [fp, #-12]
  104784:	ebfff5ee 	bl	101f44 <lwp_shmdt>
    }

    lwp_shmrm(shmid);
  104788:	e51b0008 	ldr	r0, [fp, #-8]
  10478c:	ebfff5d4 	bl	101ee4 <lwp_shmrm>
    return;
  104790:	e320f000 	nop	{0}
}
  104794:	e24bd004 	sub	sp, fp, #4
  104798:	e8bd8800 	pop	{fp, pc}

0010479c <ueth_dcache_invalid>:

void ueth_dcache_invalid(void *paddr, size_t size)
{
  10479c:	e92d4800 	push	{fp, lr}
  1047a0:	e28db004 	add	fp, sp, #4
  1047a4:	e24dd020 	sub	sp, sp, #32
  1047a8:	e50b0010 	str	r0, [fp, #-16]
  1047ac:	e50b1014 	str	r1, [fp, #-20]	; 0xffffffec
    int shmid = channel_compose_cmd3(UETH_DCACHE_REQ, (void*)0, (void*)UETH_DCACHE_INVALID, paddr, sizeof(size_t));
  1047b0:	e3a03004 	mov	r3, #4
  1047b4:	e58d300c 	str	r3, [sp, #12]
  1047b8:	e3a03000 	mov	r3, #0
  1047bc:	e58d3008 	str	r3, [sp, #8]
  1047c0:	e3a03000 	mov	r3, #0
  1047c4:	e58d3004 	str	r3, [sp, #4]
  1047c8:	e3a03000 	mov	r3, #0
  1047cc:	e58d3000 	str	r3, [sp]
  1047d0:	e51b3010 	ldr	r3, [fp, #-16]
  1047d4:	e3a02002 	mov	r2, #2
  1047d8:	e3a01000 	mov	r1, #0
  1047dc:	e3a00004 	mov	r0, #4
  1047e0:	ebfffe3b 	bl	1040d4 <channel_compose_cmd>
  1047e4:	e50b0008 	str	r0, [fp, #-8]
    struct channel_cmd *cmd = (struct channel_cmd*)lwp_shmat(shmid, NULL);
  1047e8:	e3a01000 	mov	r1, #0
  1047ec:	e51b0008 	ldr	r0, [fp, #-8]
  1047f0:	ebfff5c6 	bl	101f10 <lwp_shmat>
  1047f4:	e50b000c 	str	r0, [fp, #-12]
    if (cmd)
  1047f8:	e51b300c 	ldr	r3, [fp, #-12]
  1047fc:	e3530000 	cmp	r3, #0
  104800:	0a00000c 	beq	104838 <ueth_dcache_invalid+0x9c>
    {
        memcpy(CHANNEL_CMD_DATA(cmd), (void*)&size, sizeof(size_t));
  104804:	e51b300c 	ldr	r3, [fp, #-12]
  104808:	e283301c 	add	r3, r3, #28
  10480c:	e51b2014 	ldr	r2, [fp, #-20]	; 0xffffffec
  104810:	e5832000 	str	r2, [r3]
        channel_cmd_send_recv(ueth_ueth_srv_channel, (void *)(size_t)shmid);
  104814:	e30e3020 	movw	r3, #57376	; 0xe020
  104818:	e3403014 	movt	r3, #20
  10481c:	e5933000 	ldr	r3, [r3]
  104820:	e51b2008 	ldr	r2, [fp, #-8]
  104824:	e1a01002 	mov	r1, r2
  104828:	e1a00003 	mov	r0, r3
  10482c:	ebfffe89 	bl	104258 <channel_cmd_send_recv>
        lwp_shmdt(cmd);
  104830:	e51b000c 	ldr	r0, [fp, #-12]
  104834:	ebfff5c2 	bl	101f44 <lwp_shmdt>
    }

    lwp_shmrm(shmid);
  104838:	e51b0008 	ldr	r0, [fp, #-8]
  10483c:	ebfff5a8 	bl	101ee4 <lwp_shmrm>
    return;
  104840:	e320f000 	nop	{0}
}
  104844:	e24bd004 	sub	sp, fp, #4
  104848:	e8bd8800 	pop	{fp, pc}

0010484c <ueth_hw_interrupt_install>:

void ueth_hw_interrupt_install(int vector, void * param) {
  10484c:	e92d4800 	push	{fp, lr}
  104850:	e28db004 	add	fp, sp, #4
  104854:	e24dd020 	sub	sp, sp, #32
  104858:	e50b0010 	str	r0, [fp, #-16]
  10485c:	e50b1014 	str	r1, [fp, #-20]	; 0xffffffec
    int shmid = channel_compose_cmd3(UETH_INSTALL_INTERRUPT_REQ, (void*)0, (void*)vector, param, 0);
  104860:	e51b2010 	ldr	r2, [fp, #-16]
  104864:	e3a03000 	mov	r3, #0
  104868:	e58d300c 	str	r3, [sp, #12]
  10486c:	e3a03000 	mov	r3, #0
  104870:	e58d3008 	str	r3, [sp, #8]
  104874:	e3a03000 	mov	r3, #0
  104878:	e58d3004 	str	r3, [sp, #4]
  10487c:	e3a03000 	mov	r3, #0
  104880:	e58d3000 	str	r3, [sp]
  104884:	e51b3014 	ldr	r3, [fp, #-20]	; 0xffffffec
  104888:	e3a01000 	mov	r1, #0
  10488c:	e3a00006 	mov	r0, #6
  104890:	ebfffe0f 	bl	1040d4 <channel_compose_cmd>
  104894:	e50b0008 	str	r0, [fp, #-8]
    struct channel_cmd *cmd = (struct channel_cmd*)lwp_shmat(shmid, NULL);
  104898:	e3a01000 	mov	r1, #0
  10489c:	e51b0008 	ldr	r0, [fp, #-8]
  1048a0:	ebfff59a 	bl	101f10 <lwp_shmat>
  1048a4:	e50b000c 	str	r0, [fp, #-12]
    if (cmd)
  1048a8:	e51b300c 	ldr	r3, [fp, #-12]
  1048ac:	e3530000 	cmp	r3, #0
  1048b0:	0a000008 	beq	1048d8 <ueth_hw_interrupt_install+0x8c>
    {
        channel_cmd_send_recv(ueth_ueth_srv_channel, (void *)(size_t)shmid);
  1048b4:	e30e3020 	movw	r3, #57376	; 0xe020
  1048b8:	e3403014 	movt	r3, #20
  1048bc:	e5933000 	ldr	r3, [r3]
  1048c0:	e51b2008 	ldr	r2, [fp, #-8]
  1048c4:	e1a01002 	mov	r1, r2
  1048c8:	e1a00003 	mov	r0, r3
  1048cc:	ebfffe61 	bl	104258 <channel_cmd_send_recv>
        lwp_shmdt(cmd);
  1048d0:	e51b000c 	ldr	r0, [fp, #-12]
  1048d4:	ebfff59a 	bl	101f44 <lwp_shmdt>
        
    }
    
    lwp_shmrm(shmid);
  1048d8:	e51b0008 	ldr	r0, [fp, #-8]
  1048dc:	ebfff580 	bl	101ee4 <lwp_shmrm>
  1048e0:	e320f000 	nop	{0}
  1048e4:	e24bd004 	sub	sp, fp, #4
  1048e8:	e8bd8800 	pop	{fp, pc}

001048ec <inet_ioctlsocket>:
// #include "af_inet.h"

#include "netdev.h"

int inet_ioctlsocket(int socket, long cmd, void *arg)
{
  1048ec:	e92d4800 	push	{fp, lr}
  1048f0:	e28db004 	add	fp, sp, #4
  1048f4:	e24dd010 	sub	sp, sp, #16
  1048f8:	e50b0008 	str	r0, [fp, #-8]
  1048fc:	e50b100c 	str	r1, [fp, #-12]
  104900:	e50b2010 	str	r2, [fp, #-16]
    switch (cmd)
  104904:	e51b300c 	ldr	r3, [fp, #-12]
  104908:	e2433003 	sub	r3, r3, #3
  10490c:	e3530001 	cmp	r3, #1
  104910:	8a000006 	bhi	104930 <inet_ioctlsocket+0x44>
    {
    case F_GETFL:
    case F_SETFL:
        return unet_fcntl(socket, cmd, (int)(unsigned long) arg);
  104914:	e51b3010 	ldr	r3, [fp, #-16]
  104918:	e1a02003 	mov	r2, r3
  10491c:	e51b100c 	ldr	r1, [fp, #-12]
  104920:	e51b0008 	ldr	r0, [fp, #-8]
  104924:	eb00123d 	bl	109220 <unet_fcntl>
  104928:	e1a03000 	mov	r3, r0
  10492c:	ea000004 	b	104944 <inet_ioctlsocket+0x58>

    default:
        return unet_ioctl(socket, cmd, arg);
  104930:	e51b2010 	ldr	r2, [fp, #-16]
  104934:	e51b100c 	ldr	r1, [fp, #-12]
  104938:	e51b0008 	ldr	r0, [fp, #-8]
  10493c:	eb001245 	bl	109258 <unet_ioctl>
  104940:	e1a03000 	mov	r3, r0
    }
}
  104944:	e1a00003 	mov	r0, r3
  104948:	e24bd004 	sub	sp, fp, #4
  10494c:	e8bd8800 	pop	{fp, pc}

00104950 <sal_unet_netdev_set_pf_info>:
    &unet_netdb_ops,
};

/* Set lwIP network interface device protocol family information */
int sal_unet_netdev_set_pf_info(struct netdev *netdev)
{
  104950:	e92d4800 	push	{fp, lr}
  104954:	e28db004 	add	fp, sp, #4
  104958:	e24dd008 	sub	sp, sp, #8
  10495c:	e50b0008 	str	r0, [fp, #-8]
    RT_ASSERT(netdev);
  104960:	e51b3008 	ldr	r3, [fp, #-8]
  104964:	e3530000 	cmp	r3, #0
  104968:	1a000005 	bne	104984 <sal_unet_netdev_set_pf_info+0x34>
  10496c:	e3a02086 	mov	r2, #134	; 0x86
  104970:	e3051bc4 	movw	r1, #23492	; 0x5bc4
  104974:	e3401014 	movt	r1, #20
  104978:	e3050bbc 	movw	r0, #23484	; 0x5bbc
  10497c:	e3400014 	movt	r0, #20
  104980:	ebfffb04 	bl	103598 <rt_assert_handler>

    netdev->sal_user_data = (void *)(unsigned long) &unet_inet_family;
  104984:	e51b2008 	ldr	r2, [fp, #-8]
  104988:	e3053bac 	movw	r3, #23468	; 0x5bac
  10498c:	e3403014 	movt	r3, #20
  104990:	e582303c 	str	r3, [r2, #60]	; 0x3c
    return 0;
  104994:	e3a03000 	mov	r3, #0
}
  104998:	e1a00003 	mov	r0, r3
  10499c:	e24bd004 	sub	sp, fp, #4
  1049a0:	e8bd8800 	pop	{fp, pc}

001049a4 <ueth_device_find>:
#define MAX_DEV_NUM 3
static eth_device_node ueth_dev_list[MAX_DEV_NUM];
static char ueth_dev_list_valid[MAX_DEV_NUM];

rt_device_t ueth_device_find(const char *name)
{
  1049a4:	e92d4800 	push	{fp, lr}
  1049a8:	e28db004 	add	fp, sp, #4
  1049ac:	e24dd010 	sub	sp, sp, #16
  1049b0:	e50b0010 	str	r0, [fp, #-16]
    for (int i = 0; i < MAX_DEV_NUM; i++)
  1049b4:	e3a03000 	mov	r3, #0
  1049b8:	e50b3008 	str	r3, [fp, #-8]
  1049bc:	ea00001f 	b	104a40 <ueth_device_find+0x9c>
    {
        if (ueth_dev_list_valid[i])
  1049c0:	e30e344c 	movw	r3, #58444	; 0xe44c
  1049c4:	e3403014 	movt	r3, #20
  1049c8:	e51b2008 	ldr	r2, [fp, #-8]
  1049cc:	e0833002 	add	r3, r3, r2
  1049d0:	e5d33000 	ldrb	r3, [r3]
  1049d4:	e3530000 	cmp	r3, #0
  1049d8:	0a000015 	beq	104a34 <ueth_device_find+0x90>
        {
            if (strncmp(ueth_dev_list[i].name, name, 8) == 0)
  1049dc:	e51b3008 	ldr	r3, [fp, #-8]
  1049e0:	e3a0200c 	mov	r2, #12
  1049e4:	e0020392 	mul	r2, r2, r3
  1049e8:	e30e3428 	movw	r3, #58408	; 0xe428
  1049ec:	e3403014 	movt	r3, #20
  1049f0:	e0823003 	add	r3, r2, r3
  1049f4:	e2833004 	add	r3, r3, #4
  1049f8:	e3a02008 	mov	r2, #8
  1049fc:	e51b1010 	ldr	r1, [fp, #-16]
  104a00:	e1a00003 	mov	r0, r3
  104a04:	eb00f357 	bl	141768 <strncmp>
  104a08:	e1a03000 	mov	r3, r0
  104a0c:	e3530000 	cmp	r3, #0
  104a10:	1a000007 	bne	104a34 <ueth_device_find+0x90>
            {  
                return ueth_dev_list[i].dev;
  104a14:	e30e3428 	movw	r3, #58408	; 0xe428
  104a18:	e3403014 	movt	r3, #20
  104a1c:	e51b2008 	ldr	r2, [fp, #-8]
  104a20:	e3a0100c 	mov	r1, #12
  104a24:	e0020291 	mul	r2, r1, r2
  104a28:	e0833002 	add	r3, r3, r2
  104a2c:	e5933000 	ldr	r3, [r3]
  104a30:	ea000006 	b	104a50 <ueth_device_find+0xac>
    for (int i = 0; i < MAX_DEV_NUM; i++)
  104a34:	e51b3008 	ldr	r3, [fp, #-8]
  104a38:	e2833001 	add	r3, r3, #1
  104a3c:	e50b3008 	str	r3, [fp, #-8]
  104a40:	e51b3008 	ldr	r3, [fp, #-8]
  104a44:	e3530002 	cmp	r3, #2
  104a48:	daffffdc 	ble	1049c0 <ueth_device_find+0x1c>
            }
        }
    }

    return RT_NULL;
  104a4c:	e3a03000 	mov	r3, #0
}
  104a50:	e1a00003 	mov	r0, r3
  104a54:	e24bd004 	sub	sp, fp, #4
  104a58:	e8bd8800 	pop	{fp, pc}

00104a5c <ueth_device_register>:

rt_err_t ueth_device_register(rt_device_t dev, const char *name, rt_uint16_t flags)
{
  104a5c:	e92d4800 	push	{fp, lr}
  104a60:	e28db004 	add	fp, sp, #4
  104a64:	e24dd018 	sub	sp, sp, #24
  104a68:	e50b0010 	str	r0, [fp, #-16]
  104a6c:	e50b1014 	str	r1, [fp, #-20]	; 0xffffffec
  104a70:	e1a03002 	mov	r3, r2
  104a74:	e14b31b6 	strh	r3, [fp, #-22]	; 0xffffffea
    if (dev == RT_NULL)
  104a78:	e51b3010 	ldr	r3, [fp, #-16]
  104a7c:	e3530000 	cmp	r3, #0
  104a80:	1a000001 	bne	104a8c <ueth_device_register+0x30>
        return -RT_ERROR;
  104a84:	e3e03000 	mvn	r3, #0
  104a88:	ea000042 	b	104b98 <ueth_device_register+0x13c>

    if (ueth_device_find(name) != RT_NULL)
  104a8c:	e51b0014 	ldr	r0, [fp, #-20]	; 0xffffffec
  104a90:	ebffffc3 	bl	1049a4 <ueth_device_find>
  104a94:	e1a03000 	mov	r3, r0
  104a98:	e3530000 	cmp	r3, #0
  104a9c:	0a000001 	beq	104aa8 <ueth_device_register+0x4c>
        return -RT_ERROR;
  104aa0:	e3e03000 	mvn	r3, #0
  104aa4:	ea00003b 	b	104b98 <ueth_device_register+0x13c>

    int ueth_dev_list_index = 0;
  104aa8:	e3a03000 	mov	r3, #0
  104aac:	e50b3008 	str	r3, [fp, #-8]
    while (ueth_dev_list_index < MAX_DEV_NUM)
  104ab0:	ea000009 	b	104adc <ueth_device_register+0x80>
    {
        if (!ueth_dev_list_valid[ueth_dev_list_index])
  104ab4:	e30e344c 	movw	r3, #58444	; 0xe44c
  104ab8:	e3403014 	movt	r3, #20
  104abc:	e51b2008 	ldr	r2, [fp, #-8]
  104ac0:	e0833002 	add	r3, r3, r2
  104ac4:	e5d33000 	ldrb	r3, [r3]
  104ac8:	e3530000 	cmp	r3, #0
  104acc:	0a000006 	beq	104aec <ueth_device_register+0x90>
        {
            break;
        }
        ueth_dev_list_index++;
  104ad0:	e51b3008 	ldr	r3, [fp, #-8]
  104ad4:	e2833001 	add	r3, r3, #1
  104ad8:	e50b3008 	str	r3, [fp, #-8]
    while (ueth_dev_list_index < MAX_DEV_NUM)
  104adc:	e51b3008 	ldr	r3, [fp, #-8]
  104ae0:	e3530002 	cmp	r3, #2
  104ae4:	dafffff2 	ble	104ab4 <ueth_device_register+0x58>
  104ae8:	ea000000 	b	104af0 <ueth_device_register+0x94>
            break;
  104aec:	e320f000 	nop	{0}
    }

    if (ueth_dev_list_index == MAX_DEV_NUM)
  104af0:	e51b3008 	ldr	r3, [fp, #-8]
  104af4:	e3530003 	cmp	r3, #3
  104af8:	1a000001 	bne	104b04 <ueth_device_register+0xa8>
    {
        return -RT_ERROR;
  104afc:	e3e03000 	mvn	r3, #0
  104b00:	ea000024 	b	104b98 <ueth_device_register+0x13c>
    }
    
    strcpy(ueth_dev_list[ueth_dev_list_index].name, name);
  104b04:	e51b3008 	ldr	r3, [fp, #-8]
  104b08:	e3a0200c 	mov	r2, #12
  104b0c:	e0020392 	mul	r2, r2, r3
  104b10:	e30e3428 	movw	r3, #58408	; 0xe428
  104b14:	e3403014 	movt	r3, #20
  104b18:	e0823003 	add	r3, r2, r3
  104b1c:	e2833004 	add	r3, r3, #4
  104b20:	e51b1014 	ldr	r1, [fp, #-20]	; 0xffffffec
  104b24:	e1a00003 	mov	r0, r3
  104b28:	eb00f2d1 	bl	141674 <strcpy>
    ueth_dev_list[ueth_dev_list_index].dev = dev;
  104b2c:	e30e3428 	movw	r3, #58408	; 0xe428
  104b30:	e3403014 	movt	r3, #20
  104b34:	e51b2008 	ldr	r2, [fp, #-8]
  104b38:	e3a0100c 	mov	r1, #12
  104b3c:	e0020291 	mul	r2, r1, r2
  104b40:	e0833002 	add	r3, r3, r2
  104b44:	e51b2010 	ldr	r2, [fp, #-16]
  104b48:	e5832000 	str	r2, [r3]
    ueth_dev_list_valid[ueth_dev_list_index] = 1;
  104b4c:	e30e344c 	movw	r3, #58444	; 0xe44c
  104b50:	e3403014 	movt	r3, #20
  104b54:	e51b2008 	ldr	r2, [fp, #-8]
  104b58:	e0833002 	add	r3, r3, r2
  104b5c:	e3a02001 	mov	r2, #1
  104b60:	e5c32000 	strb	r2, [r3]
    dev->flag = flags;
  104b64:	e51b3010 	ldr	r3, [fp, #-16]
  104b68:	e15b21b6 	ldrh	r2, [fp, #-22]	; 0xffffffea
  104b6c:	e1c321bc 	strh	r2, [r3, #28]
    dev->ref_count = 0;
  104b70:	e51b3010 	ldr	r3, [fp, #-16]
  104b74:	e3a02000 	mov	r2, #0
  104b78:	e5c32020 	strb	r2, [r3, #32]
    dev->open_flag = 0;
  104b7c:	e51b3010 	ldr	r3, [fp, #-16]
  104b80:	e3a02000 	mov	r2, #0
  104b84:	e1c321be 	strh	r2, [r3, #30]

    dev->parent.type = RT_Object_Class_Device;
  104b88:	e51b3010 	ldr	r3, [fp, #-16]
  104b8c:	e3a02009 	mov	r2, #9
  104b90:	e5c32008 	strb	r2, [r3, #8]

    return RT_EOK;
  104b94:	e3a03000 	mov	r3, #0
}
  104b98:	e1a00003 	mov	r0, r3
  104b9c:	e24bd004 	sub	sp, fp, #4
  104ba0:	e8bd8800 	pop	{fp, pc}

00104ba4 <ueth_device_unregister>:

rt_err_t ueth_device_unregister(rt_device_t dev)
{
  104ba4:	e92d4800 	push	{fp, lr}
  104ba8:	e28db004 	add	fp, sp, #4
  104bac:	e24dd010 	sub	sp, sp, #16
  104bb0:	e50b0010 	str	r0, [fp, #-16]
    RT_ASSERT(dev != RT_NULL);
  104bb4:	e51b3010 	ldr	r3, [fp, #-16]
  104bb8:	e3530000 	cmp	r3, #0
  104bbc:	1a000005 	bne	104bd8 <ueth_device_unregister+0x34>
  104bc0:	e3a02048 	mov	r2, #72	; 0x48
  104bc4:	e3051c54 	movw	r1, #23636	; 0x5c54
  104bc8:	e3401014 	movt	r1, #20
  104bcc:	e3050be0 	movw	r0, #23520	; 0x5be0
  104bd0:	e3400014 	movt	r0, #20
  104bd4:	ebfffa6f 	bl	103598 <rt_assert_handler>
    RT_ASSERT(dev->parent.type == RT_Object_Class_Device);
  104bd8:	e51b3010 	ldr	r3, [fp, #-16]
  104bdc:	e5d33008 	ldrb	r3, [r3, #8]
  104be0:	e3530009 	cmp	r3, #9
  104be4:	0a000005 	beq	104c00 <ueth_device_unregister+0x5c>
  104be8:	e3a02049 	mov	r2, #73	; 0x49
  104bec:	e3051c54 	movw	r1, #23636	; 0x5c54
  104bf0:	e3401014 	movt	r1, #20
  104bf4:	e3050bf0 	movw	r0, #23536	; 0x5bf0
  104bf8:	e3400014 	movt	r0, #20
  104bfc:	ebfffa65 	bl	103598 <rt_assert_handler>

    for (int i = 0; i < MAX_DEV_NUM; i++)
  104c00:	e3a03000 	mov	r3, #0
  104c04:	e50b3008 	str	r3, [fp, #-8]
  104c08:	ea000019 	b	104c74 <ueth_device_unregister+0xd0>
    {
        if (ueth_dev_list_valid[i] && dev == ueth_dev_list[i].dev)
  104c0c:	e30e344c 	movw	r3, #58444	; 0xe44c
  104c10:	e3403014 	movt	r3, #20
  104c14:	e51b2008 	ldr	r2, [fp, #-8]
  104c18:	e0833002 	add	r3, r3, r2
  104c1c:	e5d33000 	ldrb	r3, [r3]
  104c20:	e3530000 	cmp	r3, #0
  104c24:	0a00000f 	beq	104c68 <ueth_device_unregister+0xc4>
  104c28:	e30e3428 	movw	r3, #58408	; 0xe428
  104c2c:	e3403014 	movt	r3, #20
  104c30:	e51b2008 	ldr	r2, [fp, #-8]
  104c34:	e3a0100c 	mov	r1, #12
  104c38:	e0020291 	mul	r2, r1, r2
  104c3c:	e0833002 	add	r3, r3, r2
  104c40:	e5933000 	ldr	r3, [r3]
  104c44:	e51b2010 	ldr	r2, [fp, #-16]
  104c48:	e1520003 	cmp	r2, r3
  104c4c:	1a000005 	bne	104c68 <ueth_device_unregister+0xc4>
        {
            ueth_dev_list_valid[i] = 0;
  104c50:	e30e344c 	movw	r3, #58444	; 0xe44c
  104c54:	e3403014 	movt	r3, #20
  104c58:	e51b2008 	ldr	r2, [fp, #-8]
  104c5c:	e0833002 	add	r3, r3, r2
  104c60:	e3a02000 	mov	r2, #0
  104c64:	e5c32000 	strb	r2, [r3]
    for (int i = 0; i < MAX_DEV_NUM; i++)
  104c68:	e51b3008 	ldr	r3, [fp, #-8]
  104c6c:	e2833001 	add	r3, r3, #1
  104c70:	e50b3008 	str	r3, [fp, #-8]
  104c74:	e51b3008 	ldr	r3, [fp, #-8]
  104c78:	e3530002 	cmp	r3, #2
  104c7c:	daffffe2 	ble	104c0c <ueth_device_unregister+0x68>
        }
    }

    return RT_EOK;
  104c80:	e3a03000 	mov	r3, #0
}
  104c84:	e1a00003 	mov	r0, r3
  104c88:	e24bd004 	sub	sp, fp, #4
  104c8c:	e8bd8800 	pop	{fp, pc}

00104c90 <ueth_device_init>:

rt_err_t ueth_device_init(rt_device_t dev)
{
  104c90:	e92d4800 	push	{fp, lr}
  104c94:	e28db004 	add	fp, sp, #4
  104c98:	e24dd010 	sub	sp, sp, #16
  104c9c:	e50b0010 	str	r0, [fp, #-16]
    rt_err_t result = RT_EOK;
  104ca0:	e3a03000 	mov	r3, #0
  104ca4:	e50b3008 	str	r3, [fp, #-8]

    RT_ASSERT(dev != RT_NULL);
  104ca8:	e51b3010 	ldr	r3, [fp, #-16]
  104cac:	e3530000 	cmp	r3, #0
  104cb0:	1a000005 	bne	104ccc <ueth_device_init+0x3c>
  104cb4:	e3a0205a 	mov	r2, #90	; 0x5a
  104cb8:	e3051c6c 	movw	r1, #23660	; 0x5c6c
  104cbc:	e3401014 	movt	r1, #20
  104cc0:	e3050be0 	movw	r0, #23520	; 0x5be0
  104cc4:	e3400014 	movt	r0, #20
  104cc8:	ebfffa32 	bl	103598 <rt_assert_handler>
    RT_ASSERT(dev->parent.type == RT_Object_Class_Device);
  104ccc:	e51b3010 	ldr	r3, [fp, #-16]
  104cd0:	e5d33008 	ldrb	r3, [r3, #8]
  104cd4:	e3530009 	cmp	r3, #9
  104cd8:	0a000005 	beq	104cf4 <ueth_device_init+0x64>
  104cdc:	e3a0205b 	mov	r2, #91	; 0x5b
  104ce0:	e3051c6c 	movw	r1, #23660	; 0x5c6c
  104ce4:	e3401014 	movt	r1, #20
  104ce8:	e3050bf0 	movw	r0, #23536	; 0x5bf0
  104cec:	e3400014 	movt	r0, #20
  104cf0:	ebfffa28 	bl	103598 <rt_assert_handler>

    /* get device_init handler */
    if (DEV_INIT != RT_NULL)
  104cf4:	e51b3010 	ldr	r3, [fp, #-16]
  104cf8:	e593302c 	ldr	r3, [r3, #44]	; 0x2c
  104cfc:	e5933000 	ldr	r3, [r3]
  104d00:	e3530000 	cmp	r3, #0
  104d04:	0a00001a 	beq	104d74 <ueth_device_init+0xe4>
    {
        if (!(dev->flag & RT_DEVICE_FLAG_ACTIVATED))
  104d08:	e51b3010 	ldr	r3, [fp, #-16]
  104d0c:	e1d331bc 	ldrh	r3, [r3, #28]
  104d10:	e2033010 	and	r3, r3, #16
  104d14:	e3530000 	cmp	r3, #0
  104d18:	1a000015 	bne	104d74 <ueth_device_init+0xe4>
        {
            result = DEV_INIT(dev);
  104d1c:	e51b3010 	ldr	r3, [fp, #-16]
  104d20:	e593302c 	ldr	r3, [r3, #44]	; 0x2c
  104d24:	e5933000 	ldr	r3, [r3]
  104d28:	e51b0010 	ldr	r0, [fp, #-16]
  104d2c:	e12fff33 	blx	r3
  104d30:	e50b0008 	str	r0, [fp, #-8]
            if (result != RT_EOK)
  104d34:	e51b3008 	ldr	r3, [fp, #-8]
  104d38:	e3530000 	cmp	r3, #0
  104d3c:	0a000006 	beq	104d5c <ueth_device_init+0xcc>
            {
                printf("To initialize device:%s failed. The error code is %ld\n",
                           dev->parent.name, result);
  104d40:	e51b3010 	ldr	r3, [fp, #-16]
                printf("To initialize device:%s failed. The error code is %ld\n",
  104d44:	e51b2008 	ldr	r2, [fp, #-8]
  104d48:	e1a01003 	mov	r1, r3
  104d4c:	e3050c1c 	movw	r0, #23580	; 0x5c1c
  104d50:	e3400014 	movt	r0, #20
  104d54:	eb00e697 	bl	13e7b8 <printf>
  104d58:	ea000005 	b	104d74 <ueth_device_init+0xe4>
            }
            else
            {
                dev->flag |= RT_DEVICE_FLAG_ACTIVATED;
  104d5c:	e51b3010 	ldr	r3, [fp, #-16]
  104d60:	e1d331bc 	ldrh	r3, [r3, #28]
  104d64:	e3833010 	orr	r3, r3, #16
  104d68:	e6ff2073 	uxth	r2, r3
  104d6c:	e51b3010 	ldr	r3, [fp, #-16]
  104d70:	e1c321bc 	strh	r2, [r3, #28]
            }
        }
    }

    return result;
  104d74:	e51b3008 	ldr	r3, [fp, #-8]
}
  104d78:	e1a00003 	mov	r0, r3
  104d7c:	e24bd004 	sub	sp, fp, #4
  104d80:	e8bd8800 	pop	{fp, pc}

00104d84 <ueth_device_close>:

rt_err_t ueth_device_close(rt_device_t dev)
{
  104d84:	e92d4800 	push	{fp, lr}
  104d88:	e28db004 	add	fp, sp, #4
  104d8c:	e24dd010 	sub	sp, sp, #16
  104d90:	e50b0010 	str	r0, [fp, #-16]
    rt_err_t result = RT_EOK;
  104d94:	e3a03000 	mov	r3, #0
  104d98:	e50b3008 	str	r3, [fp, #-8]

    RT_ASSERT(dev != RT_NULL);
  104d9c:	e51b3010 	ldr	r3, [fp, #-16]
  104da0:	e3530000 	cmp	r3, #0
  104da4:	1a000005 	bne	104dc0 <ueth_device_close+0x3c>
  104da8:	e3a02076 	mov	r2, #118	; 0x76
  104dac:	e3051c80 	movw	r1, #23680	; 0x5c80
  104db0:	e3401014 	movt	r1, #20
  104db4:	e3050be0 	movw	r0, #23520	; 0x5be0
  104db8:	e3400014 	movt	r0, #20
  104dbc:	ebfff9f5 	bl	103598 <rt_assert_handler>
    RT_ASSERT(dev->parent.type == RT_Object_Class_Device);
  104dc0:	e51b3010 	ldr	r3, [fp, #-16]
  104dc4:	e5d33008 	ldrb	r3, [r3, #8]
  104dc8:	e3530009 	cmp	r3, #9
  104dcc:	0a000005 	beq	104de8 <ueth_device_close+0x64>
  104dd0:	e3a02077 	mov	r2, #119	; 0x77
  104dd4:	e3051c80 	movw	r1, #23680	; 0x5c80
  104dd8:	e3401014 	movt	r1, #20
  104ddc:	e3050bf0 	movw	r0, #23536	; 0x5bf0
  104de0:	e3400014 	movt	r0, #20
  104de4:	ebfff9eb 	bl	103598 <rt_assert_handler>

    if (dev->ref_count == 0)
  104de8:	e51b3010 	ldr	r3, [fp, #-16]
  104dec:	e5d33020 	ldrb	r3, [r3, #32]
  104df0:	e3530000 	cmp	r3, #0
  104df4:	1a000001 	bne	104e00 <ueth_device_close+0x7c>
        return -RT_ERROR;
  104df8:	e3e03000 	mvn	r3, #0
  104dfc:	ea000020 	b	104e84 <ueth_device_close+0x100>

    dev->ref_count--;
  104e00:	e51b3010 	ldr	r3, [fp, #-16]
  104e04:	e5d33020 	ldrb	r3, [r3, #32]
  104e08:	e2433001 	sub	r3, r3, #1
  104e0c:	e6ef2073 	uxtb	r2, r3
  104e10:	e51b3010 	ldr	r3, [fp, #-16]
  104e14:	e5c32020 	strb	r2, [r3, #32]

    if (dev->ref_count != 0)
  104e18:	e51b3010 	ldr	r3, [fp, #-16]
  104e1c:	e5d33020 	ldrb	r3, [r3, #32]
  104e20:	e3530000 	cmp	r3, #0
